
AVRASM ver. 2.1.57  D:\diplom\eco\eco\eco.asm Wed Nov 11 22:43:09 2015

[builtin](2): Including file 'D:\dev\Atmel Toolchain\AVR Assembler\Native\2.1.1175\avrassembler\Include\m32def.inc'
D:\diplom\eco\eco\eco.asm(1): Including file 'D:\dev\Atmel Toolchain\AVR Assembler\Native\2.1.1175\avrassembler\Include\m32def.inc'
D:\diplom\eco\eco\eco.asm(27): Including file 'D:\diplom\eco\eco\int_table.inc'
D:\diplom\eco\eco\eco.asm(28): Including file 'D:\diplom\eco\eco\sound.inc'
D:\diplom\eco\eco\eco.asm(29): Including file 'D:\diplom\eco\eco\menu.inc'
D:\diplom\eco\eco\eco.asm(30): Including file 'D:\diplom\eco\eco\LCD.inc'
D:\diplom\eco\eco\eco.asm(31): Including file 'D:\diplom\eco\eco\keyboard.inc'
D:\diplom\eco\eco\eco.asm(32): Including file 'D:\diplom\eco\eco\timers.inc'
D:\diplom\eco\eco\eco.asm(36): Including file 'D:\diplom\eco\eco\core_init.inc'
                 
                 .include "m32def.inc" //include define for ATmega32 controller
                 
                 ;***** Created: 2011-02-09 12:03 ******* Source: ATmega32.xml ************
                 ;*************************************************************************
                 ;* A P P L I C A T I O N   N O T E   F O R   T H E   A V R   F A M I L Y
                 ;* 
                 ;* Number            : AVR000
                 ;* File Name         : "m32def.inc"
                 ;* Title             : Register/Bit Definitions for the ATmega32
                 ;* Date              : 2011-02-09
                 ;* Version           : 2.35
                 ;* Support E-mail    : avr@atmel.com
                 ;* Target MCU        : ATmega32
                 ;* 
                 ;* DESCRIPTION
                 ;* When including this file in the assembly program file, all I/O register 
                 ;* names and I/O register bit names appearing in the data book can be used.
                 ;* In addition, the six registers forming the three data pointers X, Y and 
                 ;* Z have been assigned names XL - ZH. Highest RAM address for Internal 
                 ;* SRAM is also defined 
                 ;* 
                 ;* The Register names are represented by their hexadecimal address.
                 ;* 
                 ;* The Register Bit names are represented by their bit number (0-7).
                 ;* 
                 ;* Please observe the difference in using the bit names with instructions
                 ;* such as "sbr"/"cbr" (set/clear bit in register) and "sbrs"/"sbrc"
                 ;* (skip if bit in register set/cleared). The following example illustrates
                 ;* this:
                 ;* 
                 ;* in    r16,PORTB             ;read PORTB latch
                 ;* sbr   r16,(1<<PB6)+(1<<PB5) ;set PB6 and PB5 (use masks, not bit#)
                 ;* out   PORTB,r16             ;output to PORTB
                 ;* 
                 ;* in    r16,TIFR              ;read the Timer Interrupt Flag Register
                 ;* sbrc  r16,TOV0              ;test the overflow flag (use bit#)
                 ;* rjmp  TOV0_is_set           ;jump if set
                 ;* ...                         ;otherwise do something else
                 ;*************************************************************************
                 
                 #ifndef _M32DEF_INC_
                 #define _M32DEF_INC_
                 
                 
                 #pragma partinc 0
                 
                 ; ***** SPECIFY DEVICE ***************************************************
                 .device ATmega32
                 #pragma AVRPART ADMIN PART_NAME ATmega32
                 .equ	SIGNATURE_000	= 0x1e
                 .equ	SIGNATURE_001	= 0x95
                 .equ	SIGNATURE_002	= 0x02
                 
                 #pragma AVRPART CORE CORE_VERSION V2E
                 
                 
                 ; ***** I/O REGISTER DEFINITIONS *****************************************
                 ; NOTE:
                 ; Definitions marked "MEMORY MAPPED"are extended I/O ports
                 ; and cannot be used with IN/OUT instructions
                 .equ	SREG	= 0x3f
                 .equ	SPL	= 0x3d
                 .equ	SPH	= 0x3e
                 .equ	OCR0	= 0x3c
                 .equ	GICR	= 0x3b
                 .equ	GIFR	= 0x3a
                 .equ	TIMSK	= 0x39
                 .equ	TIFR	= 0x38
                 .equ	SPMCR	= 0x37
                 .equ	TWCR	= 0x36
                 .equ	MCUCR	= 0x35
                 .equ	MCUCSR	= 0x34
                 .equ	TCCR0	= 0x33
                 .equ	TCNT0	= 0x32
                 .equ	OSCCAL	= 0x31
                 .equ	OCDR	= 0x31
                 .equ	SFIOR	= 0x30
                 .equ	TCCR1A	= 0x2f
                 .equ	TCCR1B	= 0x2e
                 .equ	TCNT1L	= 0x2c
                 .equ	TCNT1H	= 0x2d
                 .equ	OCR1AL	= 0x2a
                 .equ	OCR1AH	= 0x2b
                 .equ	OCR1BL	= 0x28
                 .equ	OCR1BH	= 0x29
                 .equ	ICR1L	= 0x26
                 .equ	ICR1H	= 0x27
                 .equ	TCCR2	= 0x25
                 .equ	TCNT2	= 0x24
                 .equ	OCR2	= 0x23
                 .equ	ASSR	= 0x22
                 .equ	WDTCR	= 0x21
                 .equ	UBRRH	= 0x20
                 .equ	UCSRC	= 0x20
                 .equ	EEARL	= 0x1e
                 .equ	EEARH	= 0x1f
                 .equ	EEDR	= 0x1d
                 .equ	EECR	= 0x1c
                 .equ	PORTA	= 0x1b
                 .equ	DDRA	= 0x1a
                 .equ	PINA	= 0x19
                 .equ	PORTB	= 0x18
                 .equ	DDRB	= 0x17
                 .equ	PINB	= 0x16
                 .equ	PORTC	= 0x15
                 .equ	DDRC	= 0x14
                 .equ	PINC	= 0x13
                 .equ	PORTD	= 0x12
                 .equ	DDRD	= 0x11
                 .equ	PIND	= 0x10
                 .equ	SPDR	= 0x0f
                 .equ	SPSR	= 0x0e
                 .equ	SPCR	= 0x0d
                 .equ	UDR	= 0x0c
                 .equ	UCSRA	= 0x0b
                 .equ	UCSRB	= 0x0a
                 .equ	UBRRL	= 0x09
                 .equ	ACSR	= 0x08
                 .equ	ADMUX	= 0x07
                 .equ	ADCSRA	= 0x06
                 .equ	ADCH	= 0x05
                 .equ	ADCL	= 0x04
                 .equ	TWDR	= 0x03
                 .equ	TWAR	= 0x02
                 .equ	TWSR	= 0x01
                 .equ	TWBR	= 0x00
                 
                 
                 ; ***** BIT DEFINITIONS **************************************************
                 
                 ; ***** EEPROM ***********************
                 ; EEDR - EEPROM Data Register
                 .equ	EEDR0	= 0	; EEPROM Data Register bit 0
                 .equ	EEDR1	= 1	; EEPROM Data Register bit 1
                 .equ	EEDR2	= 2	; EEPROM Data Register bit 2
                 .equ	EEDR3	= 3	; EEPROM Data Register bit 3
                 .equ	EEDR4	= 4	; EEPROM Data Register bit 4
                 .equ	EEDR5	= 5	; EEPROM Data Register bit 5
                 .equ	EEDR6	= 6	; EEPROM Data Register bit 6
                 .equ	EEDR7	= 7	; EEPROM Data Register bit 7
                 
                 ; EECR - EEPROM Control Register
                 .equ	EERE	= 0	; EEPROM Read Enable
                 .equ	EEWE	= 1	; EEPROM Write Enable
                 .equ	EEMWE	= 2	; EEPROM Master Write Enable
                 .equ	EERIE	= 3	; EEPROM Ready Interrupt Enable
                 
                 
                 ; ***** WATCHDOG *********************
                 ; WDTCR - Watchdog Timer Control Register
                 .equ	WDP0	= 0	; Watch Dog Timer Prescaler bit 0
                 .equ	WDP1	= 1	; Watch Dog Timer Prescaler bit 1
                 .equ	WDP2	= 2	; Watch Dog Timer Prescaler bit 2
                 .equ	WDE	= 3	; Watch Dog Enable
                 .equ	WDTOE	= 4	; RW
                 .equ	WDDE	= WDTOE	; For compatibility
                 
                 
                 ; ***** EXTERNAL_INTERRUPT ***********
                 ; GICR - General Interrupt Control Register
                 .equ	GIMSK	= GICR	; For compatibility
                 .equ	IVCE	= 0	; Interrupt Vector Change Enable
                 .equ	IVSEL	= 1	; Interrupt Vector Select
                 .equ	INT2	= 5	; External Interrupt Request 2 Enable
                 .equ	INT0	= 6	; External Interrupt Request 0 Enable
                 .equ	INT1	= 7	; External Interrupt Request 1 Enable
                 
                 ; GIFR - General Interrupt Flag Register
                 .equ	INTF2	= 5	; External Interrupt Flag 2
                 .equ	INTF0	= 6	; External Interrupt Flag 0
                 .equ	INTF1	= 7	; External Interrupt Flag 1
                 
                 ; MCUCR - General Interrupt Control Register
                 .equ	ISC00	= 0	; Interrupt Sense Control 0 Bit 0
                 .equ	ISC01	= 1	; Interrupt Sense Control 0 Bit 1
                 .equ	ISC10	= 2	; Interrupt Sense Control 1 Bit 0
                 .equ	ISC11	= 3	; Interrupt Sense Control 1 Bit 1
                 
                 ; MCUCSR - MCU Control And Status Register
                 .equ	ISC2	= 6	; Interrupt Sense Control 2
                 
                 
                 ; ***** TIMER_COUNTER_0 **************
                 ; TCCR0 - Timer/Counter Control Register
                 .equ	CS00	= 0	; Clock Select 1
                 .equ	CS01	= 1	; Clock Select 1
                 .equ	CS02	= 2	; Clock Select 2
                 .equ	WGM01	= 3	; Waveform Generation Mode 1
                 .equ	CTC0	= WGM01	; For compatibility
                 .equ	COM00	= 4	; Compare match Output Mode 0
                 .equ	COM01	= 5	; Compare Match Output Mode 1
                 .equ	WGM00	= 6	; Waveform Generation Mode
                 .equ	PWM0	= WGM00	; For compatibility
                 .equ	FOC0	= 7	; Force Output Compare
                 
                 ; TCNT0 - Timer/Counter Register
                 .equ	TCNT0_0	= 0	; 
                 .equ	TCNT0_1	= 1	; 
                 .equ	TCNT0_2	= 2	; 
                 .equ	TCNT0_3	= 3	; 
                 .equ	TCNT0_4	= 4	; 
                 .equ	TCNT0_5	= 5	; 
                 .equ	TCNT0_6	= 6	; 
                 .equ	TCNT0_7	= 7	; 
                 
                 ; OCR0 - Output Compare Register
                 .equ	OCR0_0	= 0	; 
                 .equ	OCR0_1	= 1	; 
                 .equ	OCR0_2	= 2	; 
                 .equ	OCR0_3	= 3	; 
                 .equ	OCR0_4	= 4	; 
                 .equ	OCR0_5	= 5	; 
                 .equ	OCR0_6	= 6	; 
                 .equ	OCR0_7	= 7	; 
                 
                 ; TIMSK - Timer/Counter Interrupt Mask Register
                 .equ	TOIE0	= 0	; Timer/Counter0 Overflow Interrupt Enable
                 .equ	OCIE0	= 1	; Timer/Counter0 Output Compare Match Interrupt register
                 
                 ; TIFR - Timer/Counter Interrupt Flag register
                 .equ	TOV0	= 0	; Timer/Counter0 Overflow Flag
                 .equ	OCF0	= 1	; Output Compare Flag 0
                 
                 
                 ; ***** TIMER_COUNTER_2 **************
                 ; TIMSK - Timer/Counter Interrupt Mask register
                 .equ	TOIE2	= 6	; Timer/Counter2 Overflow Interrupt Enable
                 .equ	OCIE2	= 7	; Timer/Counter2 Output Compare Match Interrupt Enable
                 
                 ; TIFR - Timer/Counter Interrupt Flag Register
                 .equ	TOV2	= 6	; Timer/Counter2 Overflow Flag
                 .equ	OCF2	= 7	; Output Compare Flag 2
                 
                 ; TCCR2 - Timer/Counter2 Control Register
                 .equ	CS20	= 0	; Clock Select bit 0
                 .equ	CS21	= 1	; Clock Select bit 1
                 .equ	CS22	= 2	; Clock Select bit 2
                 .equ	WGM21	= 3	; Clear Timer/Counter2 on Compare Match
                 .equ	CTC2	= WGM21	; For compatibility
                 .equ	COM20	= 4	; Compare Output Mode bit 0
                 .equ	COM21	= 5	; Compare Output Mode bit 1
                 .equ	WGM20	= 6	; Pulse Width Modulator Enable
                 .equ	PWM2	= WGM20	; For compatibility
                 .equ	FOC2	= 7	; Force Output Compare
                 
                 ; TCNT2 - Timer/Counter2
                 .equ	TCNT2_0	= 0	; Timer/Counter 2 bit 0
                 .equ	TCNT2_1	= 1	; Timer/Counter 2 bit 1
                 .equ	TCNT2_2	= 2	; Timer/Counter 2 bit 2
                 .equ	TCNT2_3	= 3	; Timer/Counter 2 bit 3
                 .equ	TCNT2_4	= 4	; Timer/Counter 2 bit 4
                 .equ	TCNT2_5	= 5	; Timer/Counter 2 bit 5
                 .equ	TCNT2_6	= 6	; Timer/Counter 2 bit 6
                 .equ	TCNT2_7	= 7	; Timer/Counter 2 bit 7
                 
                 ; OCR2 - Timer/Counter2 Output Compare Register
                 .equ	OCR2_0	= 0	; Timer/Counter2 Output Compare Register Bit 0
                 .equ	OCR2_1	= 1	; Timer/Counter2 Output Compare Register Bit 1
                 .equ	OCR2_2	= 2	; Timer/Counter2 Output Compare Register Bit 2
                 .equ	OCR2_3	= 3	; Timer/Counter2 Output Compare Register Bit 3
                 .equ	OCR2_4	= 4	; Timer/Counter2 Output Compare Register Bit 4
                 .equ	OCR2_5	= 5	; Timer/Counter2 Output Compare Register Bit 5
                 .equ	OCR2_6	= 6	; Timer/Counter2 Output Compare Register Bit 6
                 .equ	OCR2_7	= 7	; Timer/Counter2 Output Compare Register Bit 7
                 
                 ; ASSR - Asynchronous Status Register
                 .equ	TCR2UB	= 0	; Timer/counter Control Register2 Update Busy
                 .equ	OCR2UB	= 1	; Output Compare Register2 Update Busy
                 .equ	TCN2UB	= 2	; Timer/Counter2 Update Busy
                 .equ	AS2	= 3	; Asynchronous Timer/counter2
                 
                 
                 ; ***** TIMER_COUNTER_1 **************
                 ; TIMSK - Timer/Counter Interrupt Mask Register
                 .equ	TOIE1	= 2	; Timer/Counter1 Overflow Interrupt Enable
                 .equ	OCIE1B	= 3	; Timer/Counter1 Output CompareB Match Interrupt Enable
                 .equ	OCIE1A	= 4	; Timer/Counter1 Output CompareA Match Interrupt Enable
                 .equ	TICIE1	= 5	; Timer/Counter1 Input Capture Interrupt Enable
                 
                 ; TIFR - Timer/Counter Interrupt Flag register
                 .equ	TOV1	= 2	; Timer/Counter1 Overflow Flag
                 .equ	OCF1B	= 3	; Output Compare Flag 1B
                 .equ	OCF1A	= 4	; Output Compare Flag 1A
                 .equ	ICF1	= 5	; Input Capture Flag 1
                 
                 ; TCCR1A - Timer/Counter1 Control Register A
                 .equ	WGM10	= 0	; Waveform Generation Mode
                 .equ	PWM10	= WGM10	; For compatibility
                 .equ	WGM11	= 1	; Waveform Generation Mode
                 .equ	PWM11	= WGM11	; For compatibility
                 .equ	FOC1B	= 2	; Force Output Compare 1B
                 .equ	FOC1A	= 3	; Force Output Compare 1A
                 .equ	COM1B0	= 4	; Compare Output Mode 1B, bit 0
                 .equ	COM1B1	= 5	; Compare Output Mode 1B, bit 1
                 .equ	COM1A0	= 6	; Compare Ouput Mode 1A, bit 0
                 .equ	COM1A1	= 7	; Compare Output Mode 1A, bit 1
                 
                 ; TCCR1B - Timer/Counter1 Control Register B
                 .equ	CS10	= 0	; Prescaler source of Timer/Counter 1
                 .equ	CS11	= 1	; Prescaler source of Timer/Counter 1
                 .equ	CS12	= 2	; Prescaler source of Timer/Counter 1
                 .equ	WGM12	= 3	; Waveform Generation Mode
                 .equ	CTC10	= WGM12	; For compatibility
                 .equ	CTC1	= WGM12	; For compatibility
                 .equ	WGM13	= 4	; Waveform Generation Mode
                 .equ	CTC11	= WGM13	; For compatibility
                 .equ	ICES1	= 6	; Input Capture 1 Edge Select
                 .equ	ICNC1	= 7	; Input Capture 1 Noise Canceler
                 
                 
                 ; ***** SPI **************************
                 ; SPDR - SPI Data Register
                 .equ	SPDR0	= 0	; SPI Data Register bit 0
                 .equ	SPDR1	= 1	; SPI Data Register bit 1
                 .equ	SPDR2	= 2	; SPI Data Register bit 2
                 .equ	SPDR3	= 3	; SPI Data Register bit 3
                 .equ	SPDR4	= 4	; SPI Data Register bit 4
                 .equ	SPDR5	= 5	; SPI Data Register bit 5
                 .equ	SPDR6	= 6	; SPI Data Register bit 6
                 .equ	SPDR7	= 7	; SPI Data Register bit 7
                 
                 ; SPSR - SPI Status Register
                 .equ	SPI2X	= 0	; Double SPI Speed Bit
                 .equ	WCOL	= 6	; Write Collision Flag
                 .equ	SPIF	= 7	; SPI Interrupt Flag
                 
                 ; SPCR - SPI Control Register
                 .equ	SPR0	= 0	; SPI Clock Rate Select 0
                 .equ	SPR1	= 1	; SPI Clock Rate Select 1
                 .equ	CPHA	= 2	; Clock Phase
                 .equ	CPOL	= 3	; Clock polarity
                 .equ	MSTR	= 4	; Master/Slave Select
                 .equ	DORD	= 5	; Data Order
                 .equ	SPE	= 6	; SPI Enable
                 .equ	SPIE	= 7	; SPI Interrupt Enable
                 
                 
                 ; ***** USART ************************
                 ; UDR - USART I/O Data Register
                 .equ	UDR0	= 0	; USART I/O Data Register bit 0
                 .equ	UDR1	= 1	; USART I/O Data Register bit 1
                 .equ	UDR2	= 2	; USART I/O Data Register bit 2
                 .equ	UDR3	= 3	; USART I/O Data Register bit 3
                 .equ	UDR4	= 4	; USART I/O Data Register bit 4
                 .equ	UDR5	= 5	; USART I/O Data Register bit 5
                 .equ	UDR6	= 6	; USART I/O Data Register bit 6
                 .equ	UDR7	= 7	; USART I/O Data Register bit 7
                 
                 ; UCSRA - USART Control and Status Register A
                 .equ	USR	= UCSRA	; For compatibility
                 .equ	MPCM	= 0	; Multi-processor Communication Mode
                 .equ	U2X	= 1	; Double the USART transmission speed
                 .equ	UPE	= 2	; Parity Error
                 .equ	PE	= UPE	; For compatibility
                 .equ	DOR	= 3	; Data overRun
                 .equ	FE	= 4	; Framing Error
                 .equ	UDRE	= 5	; USART Data Register Empty
                 .equ	TXC	= 6	; USART Transmitt Complete
                 .equ	RXC	= 7	; USART Receive Complete
                 
                 ; UCSRB - USART Control and Status Register B
                 .equ	UCR	= UCSRB	; For compatibility
                 .equ	TXB8	= 0	; Transmit Data Bit 8
                 .equ	RXB8	= 1	; Receive Data Bit 8
                 .equ	UCSZ2	= 2	; Character Size
                 .equ	CHR9	= UCSZ2	; For compatibility
                 .equ	TXEN	= 3	; Transmitter Enable
                 .equ	RXEN	= 4	; Receiver Enable
                 .equ	UDRIE	= 5	; USART Data register Empty Interrupt Enable
                 .equ	TXCIE	= 6	; TX Complete Interrupt Enable
                 .equ	RXCIE	= 7	; RX Complete Interrupt Enable
                 
                 ; UCSRC - USART Control and Status Register C
                 .equ	UCPOL	= 0	; Clock Polarity
                 .equ	UCSZ0	= 1	; Character Size
                 .equ	UCSZ1	= 2	; Character Size
                 .equ	USBS	= 3	; Stop Bit Select
                 .equ	UPM0	= 4	; Parity Mode Bit 0
                 .equ	UPM1	= 5	; Parity Mode Bit 1
                 .equ	UMSEL	= 6	; USART Mode Select
                 .equ	URSEL	= 7	; Register Select
                 
                 .equ	UBRRHI	= UBRRH	; For compatibility
                 
                 ; ***** ANALOG_COMPARATOR ************
                 ; SFIOR - Special Function IO Register
                 .equ	ACME	= 3	; Analog Comparator Multiplexer Enable
                 
                 ; ACSR - Analog Comparator Control And Status Register
                 .equ	ACIS0	= 0	; Analog Comparator Interrupt Mode Select bit 0
                 .equ	ACIS1	= 1	; Analog Comparator Interrupt Mode Select bit 1
                 .equ	ACIC	= 2	; Analog Comparator Input Capture Enable
                 .equ	ACIE	= 3	; Analog Comparator Interrupt Enable
                 .equ	ACI	= 4	; Analog Comparator Interrupt Flag
                 .equ	ACO	= 5	; Analog Compare Output
                 .equ	ACBG	= 6	; Analog Comparator Bandgap Select
                 .equ	ACD	= 7	; Analog Comparator Disable
                 
                 
                 ; ***** AD_CONVERTER *****************
                 ; ADMUX - The ADC multiplexer Selection Register
                 .equ	MUX0	= 0	; Analog Channel and Gain Selection Bits
                 .equ	MUX1	= 1	; Analog Channel and Gain Selection Bits
                 .equ	MUX2	= 2	; Analog Channel and Gain Selection Bits
                 .equ	MUX3	= 3	; Analog Channel and Gain Selection Bits
                 .equ	MUX4	= 4	; Analog Channel and Gain Selection Bits
                 .equ	ADLAR	= 5	; Left Adjust Result
                 .equ	REFS0	= 6	; Reference Selection Bit 0
                 .equ	REFS1	= 7	; Reference Selection Bit 1
                 
                 ; ADCSRA - The ADC Control and Status register
                 .equ	ADCSR	= ADCSRA	; For compatibility
                 .equ	ADPS0	= 0	; ADC  Prescaler Select Bits
                 .equ	ADPS1	= 1	; ADC  Prescaler Select Bits
                 .equ	ADPS2	= 2	; ADC  Prescaler Select Bits
                 .equ	ADIE	= 3	; ADC Interrupt Enable
                 .equ	ADIF	= 4	; ADC Interrupt Flag
                 .equ	ADATE	= 5	; When this bit is written to one,the Timer/Counter2 prescaler will be reset.The bit will be cleared by hardware after the operation is performed.Writing a zero to this bit will have no effect.This bit will always be read as zero if Timer/C                 ounter2 is clocked by the internal CPU clock.If this bit is written when Timer/Counter2 is operating in asynchronous mode,the bit will remain one until the prescaler has been reset.
                 .equ	ADFR	= ADATE	; For compatibility
                 .equ	ADSC	= 6	; ADC Start Conversion
                 .equ	ADEN	= 7	; ADC Enable
                 
                 ; ADCH - ADC Data Register High Byte
                 .equ	ADCH0	= 0	; ADC Data Register High Byte Bit 0
                 .equ	ADCH1	= 1	; ADC Data Register High Byte Bit 1
                 .equ	ADCH2	= 2	; ADC Data Register High Byte Bit 2
                 .equ	ADCH3	= 3	; ADC Data Register High Byte Bit 3
                 .equ	ADCH4	= 4	; ADC Data Register High Byte Bit 4
                 .equ	ADCH5	= 5	; ADC Data Register High Byte Bit 5
                 .equ	ADCH6	= 6	; ADC Data Register High Byte Bit 6
                 .equ	ADCH7	= 7	; ADC Data Register High Byte Bit 7
                 
                 ; ADCL - ADC Data Register Low Byte
                 .equ	ADCL0	= 0	; ADC Data Register Low Byte Bit 0
                 .equ	ADCL1	= 1	; ADC Data Register Low Byte Bit 1
                 .equ	ADCL2	= 2	; ADC Data Register Low Byte Bit 2
                 .equ	ADCL3	= 3	; ADC Data Register Low Byte Bit 3
                 .equ	ADCL4	= 4	; ADC Data Register Low Byte Bit 4
                 .equ	ADCL5	= 5	; ADC Data Register Low Byte Bit 5
                 .equ	ADCL6	= 6	; ADC Data Register Low Byte Bit 6
                 .equ	ADCL7	= 7	; ADC Data Register Low Byte Bit 7
                 
                 ; SFIOR - Special Function IO Register
                 .equ	ADTS0	= 5	; ADC Auto Trigger Source 0
                 .equ	ADTS1	= 6	; ADC Auto Trigger Source 1
                 .equ	ADTS2	= 7	; ADC Auto Trigger Source 2
                 
                 
                 ; ***** PORTA ************************
                 ; PORTA - Port A Data Register
                 .equ	PORTA0	= 0	; Port A Data Register bit 0
                 .equ	PA0	= 0	; For compatibility
                 .equ	PORTA1	= 1	; Port A Data Register bit 1
                 .equ	PA1	= 1	; For compatibility
                 .equ	PORTA2	= 2	; Port A Data Register bit 2
                 .equ	PA2	= 2	; For compatibility
                 .equ	PORTA3	= 3	; Port A Data Register bit 3
                 .equ	PA3	= 3	; For compatibility
                 .equ	PORTA4	= 4	; Port A Data Register bit 4
                 .equ	PA4	= 4	; For compatibility
                 .equ	PORTA5	= 5	; Port A Data Register bit 5
                 .equ	PA5	= 5	; For compatibility
                 .equ	PORTA6	= 6	; Port A Data Register bit 6
                 .equ	PA6	= 6	; For compatibility
                 .equ	PORTA7	= 7	; Port A Data Register bit 7
                 .equ	PA7	= 7	; For compatibility
                 
                 ; DDRA - Port A Data Direction Register
                 .equ	DDA0	= 0	; Data Direction Register, Port A, bit 0
                 .equ	DDA1	= 1	; Data Direction Register, Port A, bit 1
                 .equ	DDA2	= 2	; Data Direction Register, Port A, bit 2
                 .equ	DDA3	= 3	; Data Direction Register, Port A, bit 3
                 .equ	DDA4	= 4	; Data Direction Register, Port A, bit 4
                 .equ	DDA5	= 5	; Data Direction Register, Port A, bit 5
                 .equ	DDA6	= 6	; Data Direction Register, Port A, bit 6
                 .equ	DDA7	= 7	; Data Direction Register, Port A, bit 7
                 
                 ; PINA - Port A Input Pins
                 .equ	PINA0	= 0	; Input Pins, Port A bit 0
                 .equ	PINA1	= 1	; Input Pins, Port A bit 1
                 .equ	PINA2	= 2	; Input Pins, Port A bit 2
                 .equ	PINA3	= 3	; Input Pins, Port A bit 3
                 .equ	PINA4	= 4	; Input Pins, Port A bit 4
                 .equ	PINA5	= 5	; Input Pins, Port A bit 5
                 .equ	PINA6	= 6	; Input Pins, Port A bit 6
                 .equ	PINA7	= 7	; Input Pins, Port A bit 7
                 
                 
                 ; ***** PORTB ************************
                 ; PORTB - Port B Data Register
                 .equ	PORTB0	= 0	; Port B Data Register bit 0
                 .equ	PB0	= 0	; For compatibility
                 .equ	PORTB1	= 1	; Port B Data Register bit 1
                 .equ	PB1	= 1	; For compatibility
                 .equ	PORTB2	= 2	; Port B Data Register bit 2
                 .equ	PB2	= 2	; For compatibility
                 .equ	PORTB3	= 3	; Port B Data Register bit 3
                 .equ	PB3	= 3	; For compatibility
                 .equ	PORTB4	= 4	; Port B Data Register bit 4
                 .equ	PB4	= 4	; For compatibility
                 .equ	PORTB5	= 5	; Port B Data Register bit 5
                 .equ	PB5	= 5	; For compatibility
                 .equ	PORTB6	= 6	; Port B Data Register bit 6
                 .equ	PB6	= 6	; For compatibility
                 .equ	PORTB7	= 7	; Port B Data Register bit 7
                 .equ	PB7	= 7	; For compatibility
                 
                 ; DDRB - Port B Data Direction Register
                 .equ	DDB0	= 0	; Port B Data Direction Register bit 0
                 .equ	DDB1	= 1	; Port B Data Direction Register bit 1
                 .equ	DDB2	= 2	; Port B Data Direction Register bit 2
                 .equ	DDB3	= 3	; Port B Data Direction Register bit 3
                 .equ	DDB4	= 4	; Port B Data Direction Register bit 4
                 .equ	DDB5	= 5	; Port B Data Direction Register bit 5
                 .equ	DDB6	= 6	; Port B Data Direction Register bit 6
                 .equ	DDB7	= 7	; Port B Data Direction Register bit 7
                 
                 ; PINB - Port B Input Pins
                 .equ	PINB0	= 0	; Port B Input Pins bit 0
                 .equ	PINB1	= 1	; Port B Input Pins bit 1
                 .equ	PINB2	= 2	; Port B Input Pins bit 2
                 .equ	PINB3	= 3	; Port B Input Pins bit 3
                 .equ	PINB4	= 4	; Port B Input Pins bit 4
                 .equ	PINB5	= 5	; Port B Input Pins bit 5
                 .equ	PINB6	= 6	; Port B Input Pins bit 6
                 .equ	PINB7	= 7	; Port B Input Pins bit 7
                 
                 
                 ; ***** PORTC ************************
                 ; PORTC - Port C Data Register
                 .equ	PORTC0	= 0	; Port C Data Register bit 0
                 .equ	PC0	= 0	; For compatibility
                 .equ	PORTC1	= 1	; Port C Data Register bit 1
                 .equ	PC1	= 1	; For compatibility
                 .equ	PORTC2	= 2	; Port C Data Register bit 2
                 .equ	PC2	= 2	; For compatibility
                 .equ	PORTC3	= 3	; Port C Data Register bit 3
                 .equ	PC3	= 3	; For compatibility
                 .equ	PORTC4	= 4	; Port C Data Register bit 4
                 .equ	PC4	= 4	; For compatibility
                 .equ	PORTC5	= 5	; Port C Data Register bit 5
                 .equ	PC5	= 5	; For compatibility
                 .equ	PORTC6	= 6	; Port C Data Register bit 6
                 .equ	PC6	= 6	; For compatibility
                 .equ	PORTC7	= 7	; Port C Data Register bit 7
                 .equ	PC7	= 7	; For compatibility
                 
                 ; DDRC - Port C Data Direction Register
                 .equ	DDC0	= 0	; Port C Data Direction Register bit 0
                 .equ	DDC1	= 1	; Port C Data Direction Register bit 1
                 .equ	DDC2	= 2	; Port C Data Direction Register bit 2
                 .equ	DDC3	= 3	; Port C Data Direction Register bit 3
                 .equ	DDC4	= 4	; Port C Data Direction Register bit 4
                 .equ	DDC5	= 5	; Port C Data Direction Register bit 5
                 .equ	DDC6	= 6	; Port C Data Direction Register bit 6
                 .equ	DDC7	= 7	; Port C Data Direction Register bit 7
                 
                 ; PINC - Port C Input Pins
                 .equ	PINC0	= 0	; Port C Input Pins bit 0
                 .equ	PINC1	= 1	; Port C Input Pins bit 1
                 .equ	PINC2	= 2	; Port C Input Pins bit 2
                 .equ	PINC3	= 3	; Port C Input Pins bit 3
                 .equ	PINC4	= 4	; Port C Input Pins bit 4
                 .equ	PINC5	= 5	; Port C Input Pins bit 5
                 .equ	PINC6	= 6	; Port C Input Pins bit 6
                 .equ	PINC7	= 7	; Port C Input Pins bit 7
                 
                 
                 ; ***** PORTD ************************
                 ; PORTD - Port D Data Register
                 .equ	PORTD0	= 0	; Port D Data Register bit 0
                 .equ	PD0	= 0	; For compatibility
                 .equ	PORTD1	= 1	; Port D Data Register bit 1
                 .equ	PD1	= 1	; For compatibility
                 .equ	PORTD2	= 2	; Port D Data Register bit 2
                 .equ	PD2	= 2	; For compatibility
                 .equ	PORTD3	= 3	; Port D Data Register bit 3
                 .equ	PD3	= 3	; For compatibility
                 .equ	PORTD4	= 4	; Port D Data Register bit 4
                 .equ	PD4	= 4	; For compatibility
                 .equ	PORTD5	= 5	; Port D Data Register bit 5
                 .equ	PD5	= 5	; For compatibility
                 .equ	PORTD6	= 6	; Port D Data Register bit 6
                 .equ	PD6	= 6	; For compatibility
                 .equ	PORTD7	= 7	; Port D Data Register bit 7
                 .equ	PD7	= 7	; For compatibility
                 
                 ; DDRD - Port D Data Direction Register
                 .equ	DDD0	= 0	; Port D Data Direction Register bit 0
                 .equ	DDD1	= 1	; Port D Data Direction Register bit 1
                 .equ	DDD2	= 2	; Port D Data Direction Register bit 2
                 .equ	DDD3	= 3	; Port D Data Direction Register bit 3
                 .equ	DDD4	= 4	; Port D Data Direction Register bit 4
                 .equ	DDD5	= 5	; Port D Data Direction Register bit 5
                 .equ	DDD6	= 6	; Port D Data Direction Register bit 6
                 .equ	DDD7	= 7	; Port D Data Direction Register bit 7
                 
                 ; PIND - Port D Input Pins
                 .equ	PIND0	= 0	; Port D Input Pins bit 0
                 .equ	PIND1	= 1	; Port D Input Pins bit 1
                 .equ	PIND2	= 2	; Port D Input Pins bit 2
                 .equ	PIND3	= 3	; Port D Input Pins bit 3
                 .equ	PIND4	= 4	; Port D Input Pins bit 4
                 .equ	PIND5	= 5	; Port D Input Pins bit 5
                 .equ	PIND6	= 6	; Port D Input Pins bit 6
                 .equ	PIND7	= 7	; Port D Input Pins bit 7
                 
                 
                 ; ***** CPU **************************
                 ; SREG - Status Register
                 .equ	SREG_C	= 0	; Carry Flag
                 .equ	SREG_Z	= 1	; Zero Flag
                 .equ	SREG_N	= 2	; Negative Flag
                 .equ	SREG_V	= 3	; Two's Complement Overflow Flag
                 .equ	SREG_S	= 4	; Sign Bit
                 .equ	SREG_H	= 5	; Half Carry Flag
                 .equ	SREG_T	= 6	; Bit Copy Storage
                 .equ	SREG_I	= 7	; Global Interrupt Enable
                 
                 ; MCUCR - MCU Control Register
                 ;.equ	ISC00	= 0	; Interrupt Sense Control 0 Bit 0
                 ;.equ	ISC01	= 1	; Interrupt Sense Control 0 Bit 1
                 ;.equ	ISC10	= 2	; Interrupt Sense Control 1 Bit 0
                 ;.equ	ISC11	= 3	; Interrupt Sense Control 1 Bit 1
                 .equ	SM0	= 4	; Sleep Mode Select
                 .equ	SM1	= 5	; Sleep Mode Select
                 .equ	SM2	= 6	; Sleep Mode Select
                 .equ	SE	= 7	; Sleep Enable
                 
                 ; MCUCSR - MCU Control And Status Register
                 .equ	MCUSR	= MCUCSR	; For compatibility
                 .equ	PORF	= 0	; Power-on reset flag
                 .equ	EXTRF	= 1	; External Reset Flag
                 .equ	BORF	= 2	; Brown-out Reset Flag
                 .equ	WDRF	= 3	; Watchdog Reset Flag
                 .equ	JTRF	= 4	; JTAG Reset Flag
                 .equ	JTD	= 7	; JTAG Interface Disable
                 
                 ; OSCCAL - Oscillator Calibration Value
                 .equ	CAL0	= 0	; Oscillator Calibration Value Bit0
                 .equ	CAL1	= 1	; Oscillator Calibration Value Bit1
                 .equ	CAL2	= 2	; Oscillator Calibration Value Bit2
                 .equ	CAL3	= 3	; Oscillator Calibration Value Bit3
                 .equ	CAL4	= 4	; Oscillator Calibration Value Bit4
                 .equ	CAL5	= 5	; Oscillator Calibration Value Bit5
                 .equ	CAL6	= 6	; Oscillator Calibration Value Bit6
                 .equ	CAL7	= 7	; Oscillator Calibration Value Bit7
                 
                 ; SFIOR - Special Function IO Register
                 .equ	PSR10	= 0	; Prescaler Reset Timer/Counter1&0
                 .equ	PSR2	= 1	; Prescaler Reset Timer/Counter2
                 .equ	PUD	= 2	; Pull-up Disable
                 
                 
                 ; ***** BOOT_LOAD ********************
                 ; SPMCR - Store Program Memory Control Register
                 .equ	SPMEN	= 0	; Store Program Memory Enable
                 .equ	PGERS	= 1	; Page Erase
                 .equ	PGWRT	= 2	; Page Write
                 .equ	BLBSET	= 3	; Boot Lock Bit Set
                 .equ	RWWSRE	= 4	; Read While Write secion read enable
                 .equ	ASRE	= RWWSRE	; For compatibility
                 .equ	RWWSB	= 6	; Read While Write Section Busy
                 .equ	ASB	= RWWSB	; For compatibility
                 .equ	SPMIE	= 7	; SPM Interrupt Enable
                 
                 
                 ; ***** TWI **************************
                 ; TWBR - TWI Bit Rate register
                 .equ	TWBR0	= 0	; 
                 .equ	TWBR1	= 1	; 
                 .equ	TWBR2	= 2	; 
                 .equ	TWBR3	= 3	; 
                 .equ	TWBR4	= 4	; 
                 .equ	TWBR5	= 5	; 
                 .equ	TWBR6	= 6	; 
                 .equ	TWBR7	= 7	; 
                 
                 ; TWCR - TWI Control Register
                 .equ	TWIE	= 0	; TWI Interrupt Enable
                 .equ	TWEN	= 2	; TWI Enable Bit
                 .equ	TWWC	= 3	; TWI Write Collition Flag
                 .equ	TWSTO	= 4	; TWI Stop Condition Bit
                 .equ	TWSTA	= 5	; TWI Start Condition Bit
                 .equ	TWEA	= 6	; TWI Enable Acknowledge Bit
                 .equ	TWINT	= 7	; TWI Interrupt Flag
                 
                 ; TWSR - TWI Status Register
                 .equ	TWPS0	= 0	; TWI Prescaler bits
                 .equ	TWPS1	= 1	; TWI Prescaler bits
                 .equ	TWS3	= 3	; TWI Status
                 .equ	TWS4	= 4	; TWI Status
                 .equ	TWS5	= 5	; TWI Status
                 .equ	TWS6	= 6	; TWI Status
                 .equ	TWS7	= 7	; TWI Status
                 
                 ; TWDR - TWI Data register
                 .equ	TWD0	= 0	; TWI Data Register Bit 0
                 .equ	TWD1	= 1	; TWI Data Register Bit 1
                 .equ	TWD2	= 2	; TWI Data Register Bit 2
                 .equ	TWD3	= 3	; TWI Data Register Bit 3
                 .equ	TWD4	= 4	; TWI Data Register Bit 4
                 .equ	TWD5	= 5	; TWI Data Register Bit 5
                 .equ	TWD6	= 6	; TWI Data Register Bit 6
                 .equ	TWD7	= 7	; TWI Data Register Bit 7
                 
                 ; TWAR - TWI (Slave) Address register
                 .equ	TWGCE	= 0	; TWI General Call Recognition Enable Bit
                 .equ	TWA0	= 1	; TWI (Slave) Address register Bit 0
                 .equ	TWA1	= 2	; TWI (Slave) Address register Bit 1
                 .equ	TWA2	= 3	; TWI (Slave) Address register Bit 2
                 .equ	TWA3	= 4	; TWI (Slave) Address register Bit 3
                 .equ	TWA4	= 5	; TWI (Slave) Address register Bit 4
                 .equ	TWA5	= 6	; TWI (Slave) Address register Bit 5
                 .equ	TWA6	= 7	; TWI (Slave) Address register Bit 6
                 
                 
                 
                 ; ***** LOCKSBITS ********************************************************
                 .equ	LB1	= 0	; Lock bit
                 .equ	LB2	= 1	; Lock bit
                 .equ	BLB01	= 2	; Boot Lock bit
                 .equ	BLB02	= 3	; Boot Lock bit
                 .equ	BLB11	= 4	; Boot lock bit
                 .equ	BLB12	= 5	; Boot lock bit
                 
                 
                 ; ***** FUSES ************************************************************
                 ; LOW fuse bits
                 .equ	CKSEL0	= 0	; Select Clock Source
                 .equ	CKSEL1	= 1	; Select Clock Source
                 .equ	CKSEL2	= 2	; Select Clock Source
                 .equ	CKSEL3	= 3	; Select Clock Source
                 .equ	BODEN	= 6	; Brown out detector enable
                 .equ	BODLEVEL	= 7	; Brown out detector trigger level
                 
                 ; HIGH fuse bits
                 .equ	BOOTRST	= 0	; Select Reset Vector
                 .equ	BOOTSZ0	= 1	; Select Boot Size
                 .equ	BOOTSZ1	= 2	; Select Boot Size
                 .equ	EESAVE	= 3	; EEPROM memory is preserved through chip erase
                 .equ	SPIEN	= 5	; Enable Serial programming and Data Downloading
                 .equ	JTAGEN	= 6	; Enable JTAG
                 .equ	OCDEN	= 7	; Enable OCD
                 
                 
                 
                 ; ***** CPU REGISTER DEFINITIONS *****************************************
                 .def	XH	= r27
                 .def	XL	= r26
                 .def	YH	= r29
                 .def	YL	= r28
                 .def	ZH	= r31
                 .def	ZL	= r30
                 
                 
                 
                 ; ***** DATA MEMORY DECLARATIONS *****************************************
                 .equ	FLASHEND	= 0x3fff	; Note: Word address
                 .equ	IOEND	= 0x003f
                 .equ	SRAM_START	= 0x0060
                 .equ	SRAM_SIZE	= 2048
                 .equ	RAMEND	= 0x085f
                 .equ	XRAMEND	= 0x0000
                 .equ	E2END	= 0x03ff
                 .equ	EEPROMEND	= 0x03ff
                 .equ	EEADRBITS	= 10
                 #pragma AVRPART MEMORY PROG_FLASH 32768
                 #pragma AVRPART MEMORY EEPROM 1024
                 #pragma AVRPART MEMORY INT_SRAM SIZE 2048
                 #pragma AVRPART MEMORY INT_SRAM START_ADDR 0x60
                 
                 
                 
                 ; ***** BOOTLOADER DECLARATIONS ******************************************
                 .equ	NRWW_START_ADDR	= 0x3800
                 .equ	NRWW_STOP_ADDR	= 0x3fff
                 .equ	RWW_START_ADDR	= 0x0
                 .equ	RWW_STOP_ADDR	= 0x37ff
                 .equ	PAGESIZE	= 64
                 .equ	FIRSTBOOTSTART	= 0x3f00
                 .equ	SECONDBOOTSTART	= 0x3e00
                 .equ	THIRDBOOTSTART	= 0x3c00
                 .equ	FOURTHBOOTSTART	= 0x3800
                 .equ	SMALLBOOTSTART	= FIRSTBOOTSTART
                 .equ	LARGEBOOTSTART	= FOURTHBOOTSTART
                 
                 
                 
                 ; ***** INTERRUPT VECTORS ************************************************
                 .equ	INT0addr	= 0x0002	; External Interrupt Request 0
                 .equ	INT1addr	= 0x0004	; External Interrupt Request 1
                 .equ	INT2addr	= 0x0006	; External Interrupt Request 2
                 .equ	OC2addr	= 0x0008	; Timer/Counter2 Compare Match
                 .equ	OVF2addr	= 0x000a	; Timer/Counter2 Overflow
                 .equ	ICP1addr	= 0x000c	; Timer/Counter1 Capture Event
                 .equ	OC1Aaddr	= 0x000e	; Timer/Counter1 Compare Match A
                 .equ	OC1Baddr	= 0x0010	; Timer/Counter1 Compare Match B
                 .equ	OVF1addr	= 0x0012	; Timer/Counter1 Overflow
                 .equ	OC0addr	= 0x0014	; Timer/Counter0 Compare Match
                 .equ	OVF0addr	= 0x0016	; Timer/Counter0 Overflow
                 .equ	SPIaddr	= 0x0018	; Serial Transfer Complete
                 .equ	URXCaddr	= 0x001a	; USART, Rx Complete
                 .equ	UDREaddr	= 0x001c	; USART Data Register Empty
                 .equ	UTXCaddr	= 0x001e	; USART, Tx Complete
                 .equ	ADCCaddr	= 0x0020	; ADC Conversion Complete
                 .equ	ERDYaddr	= 0x0022	; EEPROM Ready
                 .equ	ACIaddr	= 0x0024	; Analog Comparator
                 .equ	TWIaddr	= 0x0026	; 2-wire Serial Interface
                 .equ	SPMRaddr	= 0x0028	; Store Program Memory Ready
                 
                 .equ	INT_VECTORS_SIZE	= 42	; size in words
                 
                 #endif  /* _M32DEF_INC_ */
                 
                 
                 
                 ;***** Created: 2011-02-09 12:03 ******* Source: ATmega32.xml ************
                 ;*************************************************************************
                 ;* A P P L I C A T I O N   N O T E   F O R   T H E   A V R   F A M I L Y
                 ;* 
                 ;* Number            : AVR000
                 ;* File Name         : "m32def.inc"
                 ;* Title             : Register/Bit Definitions for the ATmega32
                 ;* Date              : 2011-02-09
                 ;* Version           : 2.35
                 ;* Support E-mail    : avr@atmel.com
                 ;* Target MCU        : ATmega32
                 ;* 
                 ;* DESCRIPTION
                 ;* When including this file in the assembly program file, all I/O register 
                 ;* names and I/O register bit names appearing in the data book can be used.
                 ;* In addition, the six registers forming the three data pointers X, Y and 
                 ;* Z have been assigned names XL - ZH. Highest RAM address for Internal 
                 ;* SRAM is also defined 
                 ;* 
                 ;* The Register names are represented by their hexadecimal address.
                 ;* 
                 ;* The Register Bit names are represented by their bit number (0-7).
                 ;* 
                 ;* Please observe the difference in using the bit names with instructions
                 ;* such as "sbr"/"cbr" (set/clear bit in register) and "sbrs"/"sbrc"
                 ;* (skip if bit in register set/cleared). The following example illustrates
                 ;* this:
                 ;* 
                 ;* in    r16,PORTB             ;read PORTB latch
                 ;* sbr   r16,(1<<PB6)+(1<<PB5) ;set PB6 and PB5 (use masks, not bit#)
                 ;* out   PORTB,r16             ;output to PORTB
                 ;* 
                 ;* in    r16,TIFR              ;read the Timer Interrupt Flag Register
                 ;* sbrc  r16,TOV0              ;test the overflow flag (use bit#)
                 ;* rjmp  TOV0_is_set           ;jump if set
                 ;* ...                         ;otherwise do something else
                 ;*************************************************************************
                 
                 #ifndef _M32DEF_INC_
                 
                 #endif  /* _M32DEF_INC_ */
                 
                 
                  .def temp=r17		   //define r16 as temp
                  .def byte=r16		   //define r17 as byte (will be used for send byte to LCD)
                  .def menu_loc=r18
                 
                 //==========DATA SEGMENT=================================================
                 // In this segment we can to reserve some memory
                 // for strings for example...
                 .dseg
                 .org 0x0060						//starting from 0x0060 because 
                 								//before that adress we have reserved memory for registers
000060           CO_msg:				.byte 16	//hello world string
000070           CH4_msg:			.byte 16	//CH4 level message string
000080           temperature_msg:	.byte 16	//Temperature message string
000090           time_msg:			.byte 16	//Time message string
0000a0           coords_msg:			.byte 16	//Coordinates message string
0000b0           sound_msg:			.byte 16	//Sound option message string
0000c0           test:				.byte 96	//reserve bytes for 2nd string messages
000120           menu_location:		.byte 1		//current menu location
000121           tick_count:			.byte 1		//count of button activations
000122           last_btn:			.byte 1		//number of last pressed button
000123           sound_status:		.byte 1		//status of sound
                 
                 //==========CODE SEGMENT=================================================
                 .cseg
                 .include "int_table.inc"	//interrupt vectors
                 
                  * Interrupt vectors table
                  */ 
                 
                  //=========INTERRUPT VECTORS TABLE=============================================
                  .org $000 //RESET
000000 c336       rjmp reset 
                  .org $002 //INT0 External Interrupt Request 0
000002 9518       reti
                  .org $004 //INT1 External Interrupt Request 1
000004 9518       reti
                  .org $006 //INT2 External Interrupt Request 2
000006 9518       reti
                  .org $008 //TIMER2 COMP Timer/Counter2 Compare Match
000008 9518       reti
                  .org $00A //TIMER2 OVF Timer/Counter2 Overflow
00000a 9518       reti
                  .org $00C //TIMER1 CAPT Timer/Counter1 Capture Event
00000c 9518       reti
                  .org $00E //TIMER1 COMPA Timer/Counter1 Compare Match A
00000e c2e6       rjmp Keyboard_check_interrupt
                  .org $010 //TIMER1 COMPB Timer/Counter1 Compare Match B
                  //rjmp Sound_play_and_pause
000010 9518       reti
                  .org $012 //TIMER1 OVF Timer/Counter1 Overflow
000012 9518       reti
                  .org $014 //TIMER0 COMP Timer/Counter0 Compare Match
000014 c014       rjmp Sound_generation
                  .org $016 //TIMER0 OVF Timer/Counter0 Overflow
000016 9518       reti
                  .org $018 //SPI, STC Serial Transfer Complete
000018 9518       reti
                  .org $01A //USART, RXC USART, Rx Complete
00001a 9518       reti
                  .org $01C //USART, UDRE USART Data Register Empty
00001c 9518       reti
                  .org $01E //USART, TXC USART, Tx Complete
00001e 9518       reti
                  .org $020 //ADC ADC Conversion Complete
000020 9518       reti
                  .org $022 //EE_RDY EEPROM Ready
000022 9518       reti
                  .org $024 //ANA_COMP Analog Comparator
000024 9518       reti
                  .org $026 //TWI Two-wire Serial Interface
000026 9518       reti
                  .org $028 //SPM_RDY Store Program Memory Ready
000028 9518       reti
                 //===============================================================================================
                 
                 .include "sound.inc"		//macro and procedures for buzzer sound
                 
                  * sound.inc
                  *
                  *  Created: 10.11.2015 23:44:51
                  *   Author: Hogs
                  */ 
                 
                  .equ BUZZER = 6				//6 - is number of pin for buzzer
                  .equ sound_pause_status = 1	//number of sound_status bit, for get play/pause status
                  .equ sound_general_status = 0	//number of sound_status bit, 
                 								//for get general sound status (sound_on/sound_off)
                  .equ sound_freq = 23			//frequency of sound
                 
                  //=======Sound macro=======================================
                  //-------Sound Init---------------------------
                  .macro sound_init
                  in temp, ddrd
                  ori temp, (0 | (1<<BUZZER))	//set buzzer pin as output
                  out ddrd,temp
                  in temp, portd
                  andi temp, ~(1<<BUZZER)	//set buzzer pin as 0
                  out portd, temp
                 
                 								//setting timer0
                 // ldi temp, 0 | (1<<WGM01) | (1<<CS02)
                 // out TCCR0, temp //set timer in CTC mode with 256 prescaler (disable)
                  clr temp
                  out TCNT0,temp	//set counter as 0
                  ldi temp,sound_freq
                  out OCR0,temp		//set sound frequency
                  in temp, TIMSK
                  sbr temp, OCIE0
                  out TIMSK, temp	//enable On match timer 0 interrupt
                  .endm
                  //-------Timer 0 enable--------------------------
                  .macro Timer0_enable
                  push temp
                  ldi temp, 0 | (1<<WGM01) | (1<<CS02)
                  out TCCR0, temp //set timer in CTC mode with 256 prescaler (enable)
                  pop temp
                  .endm
                  //-------Timer 0 disable-------------------------
                  .macro Timer0_disable
                  push temp
                  clr temp
                  out TCCR0, temp //set timer 0 (disable)
                  in temp, portd
                  cbr temp,BUZZER
                  out portd, temp	//clear buzzer's pin
                  pop temp
                  .endm
                  //-------Sound Alarm enable----------------------
                  .macro sound_alarm_enable
                  push temp
                  push YH
                  push YL
                 
                  cli
                  ldi YH,high(sound_status)	//
                  ldi YL,low(sound_status)	//set sound status in RAM
                  sei
                  ldi temp, 0 | (1<<sound_general_status) | (1<<sound_pause_status)
                  st Y,temp	//set general sound status and pause status
                 
                  in temp, TIMSK
                  ori temp, 0 | (1<<OCIE1B)
                  out TIMSK, temp	//enable interrupt(every 1sec)
                 
                  Timer0_enable		//enable timer0
                 
                  pop YL
                  pop YH
                  pop temp
                  .endm
                  //-------Sound Alarm disable---------------------
                  .macro sound_alarm_disable
                  push temp
                  push YH
                  push YL
                 
                  cli
                  ldi YH,high(sound_status)	//
                  ldi YL,low(sound_status)	//set sound status in RAM
                  sei
                  ldi temp, 0
                  st Y,temp			//set general sound status and pause status as 0
                 
                  in temp, TIMSK
                  andi temp, ~(0 | (1<<OCIE1B))
                  out TIMSK, temp	//disable interrupt
                 
                  Timer0_disable		//stop sound generation
                 
                  pop YL
                  pop YH
                  pop temp
                  .endm
                  //-----------------------------------------------
                 
                  //=======Sound interrupts==================================
                 
                  //-------Sound generation interrupt-----------
                  Sound_generation:
000029 931f       push temp
00002a 9b86       sbis pind, BUZZER
00002b c005       rjmp Buzzer_set_1
00002c b312       in temp, portd
00002d 7b1f       andi temp, ~(1<<BUZZER)	//if buzzer pin is 1, then set it as 0
00002e bb12       out portd,temp
00002f 911f       pop temp
000030 9518       reti
                  Buzzer_set_1:
000031 b312       in temp, portd
000032 6410       ori temp, (1<<BUZZER)		//if buzzer pin is 0, then set is as 1
000033 bb12       out portd,temp
000034 911f       pop temp
000035 9518       reti
                 
                  //--------Sound play/pause interrupt----------
                  Sound_play_and_pause:
000036 931f       push temp
000037 93df       push YH
000038 93cf       push YL
                 
000039 e6ca       ldi YL,0x6A
00003a e1d8       ldi YH,0x18
00003b bddb       out OCR1AH,YH
00003c bdca       out OCR1AL,YL
                 
00003d e0d1       ldi YH,high(sound_status)	//
00003e e2c3       ldi YL,low(sound_status)	//read sound status from RAM
00003f 8118       ld temp,Y
                 
000040 fd11       sbrc temp,sound_pause_status
000041 c00a       rjmp sound_pause
                 
000042 931f
000043 e01c
000044 bf13
000045 911f       timer0_enable	//enable sound generation
000046 7f1d       andi temp, ~(1<<sound_pause_status)
000047 8318       st Y,temp	//set pause status as 0
                 
000048 91cf       pop YL
000049 91df       pop YH
00004a 911f       pop temp
00004b 9518       reti
                 
                  sound_pause:
00004c 931f
00004d 2711
00004e bf13
00004f b312
000050 7f19
000051 bb12
000052 911f       timer0_disable	//disable sound generation
000053 6012       ori temp, (1<<sound_pause_status)
000054 8318       st Y,temp	//set pause status as 1
                 
000055 91cf       pop YL
000056 91df       pop YH
000057 911f       pop temp
000058 9518       reti
                  //--------------------------------------------
                 .include "menu.inc"			//macro for menu uses
                 
                  * menu.inc
                  *
                  *  Created: 26.10.2015 0:27:02
                  *   Author: Hogs
                  */ 
                 
                  //========MACRO==========================================
                 
                  //--------Init menu page--------------------
                  .macro menu_init
                 
                  load_strings_to_SRAM		//save strings from eeprom to ram
                 
                  ldi YH,high(menu_location) //set current menu page as 0 (first page)
                  ldi YL,low(menu_location)	//
                  ldi temp,0
                  st Y,temp
                 
                  LCD_print_str CO_msg		//print first menu page
                  second_line
                  LCD_print_str CO_msg+96
                  .endm
                  //------------------------------------------
                 
                  //--------Menu previous page----------------
                  .macro menu_prev
                 
                  push menu_loc			//Save all register which will be used
                  push XH				//
                  push XL				//
                  push temp
                  push YH
                  push YL
                 
                  cli
                  ldi YH,high(menu_location)		//load to Y register adress of
                  ldi YL,low(menu_location)		//current menu page
                  ld menu_loc,Y					//read from SRAM current menu page
                  sei
                 
                  ldi temp,0					//if current page is first
                  cpse menu_loc,temp			//then going out of procedure
                  rjmp PC+2					//else - continue
                  rjmp Return_On_2_Click		//
                 
                  dec menu_loc				//decrease page because menu moving up
                  
                  ldi temp,16				//
                  mul temp,menu_loc			//counting adress of string
                  mov XL,r0					//which contain first string
                  mov XH,r1					//of menu message
                  ldi temp,0x60				//
                  add XL,temp				//adress = ((page - 1)*16)+96
                  clr temp					//
                  adc XH,temp				//
                 
                  cli
                  first_line					//set first line for print
                  LCD_print_str_reg			//print message from adress (in X register)
                  sei
                 
                  ldi temp,16				//
                  mul temp,menu_loc			//counting adress of string
                  mov XL,r0					//which contain second string
                  mov XH,r1					//of menu message
                  ldi temp,0xC0				//
                  add XL,temp				//adress = ((page - 1) * 16)+192
                  clr temp					//
                  adc XH,temp				//
                 
                  cli
                  second_line				//set second line for print
                  LCD_print_str_reg			//print second string
                 
                  ldi YH,high(menu_location)	//
                  ldi YL,low(menu_location)	//Save current page status to SRAM
                  st Y,menu_loc				//
                  sei
                 
                  Return_On_2_Click:			
                  pop YL					//return all of used registers
                  pop YH					//to their place
                  pop temp
                  pop XL
                  pop XH
                  pop menu_loc
                 
                  .endm
                  //------------------------------------------
                 
                  //--------Menu next page--------------------
                  .macro menu_next
                 
                  push menu_loc		//save to stack
                  push XH			//all of used registers
                  push XL
                  push temp
                  push YH
                  push YL
                 
                  cli
                  ldi YH,high(menu_location)	//
                  ldi YL,low(menu_location)	//read number of current page from SRAM
                  ld menu_loc,Y				//
                  sei
                 
                  ldi temp,5					//if this page is last
                  cpse menu_loc,temp			//then go to return of procedure
                  rjmp PC+2					//else - continue
                  rjmp Return_On_8_Click		//
                 
                  inc menu_loc		//increase page because moving down
                  
                  ldi temp,16			//counting of first string adress
                  mul temp,menu_loc		//and move it to X register
                  mov XL,r0				//
                  mov XH,r1				//adress = ((page + 1) * 16)+96
                  ldi temp,0x60
                  add XL,temp
                  clr temp
                  adc XH,temp
                 
                  cli
                  first_line			//
                  LCD_print_str_reg	//printing first line
                  sei
                 
                  ldi temp,16		//counting of second string adress
                  mul temp,menu_loc	//and move it to X register
                  mov XL,r0			//
                  mov XH,r1			//adress = ((page + 1) * 16)+192
                  ldi temp,0xC0
                  add XL,temp
                  clr temp
                  adc XH,temp
                 
                  cli
                  second_line		//
                  LCD_print_str_reg	//printing second line
                 
                  ldi YH,high(menu_location)	//
                  ldi YL,low(menu_location)	//save new current page to SRAM
                  st Y,menu_loc				//
                  sei
                 
                  Return_On_8_Click:
                  pop YL				//return all of used registers
                  pop YH				//
                  pop temp
                  pop XL
                  pop XH
                  pop menu_loc
                 
                  .endm
                  //------------------------------------------
                 
                  //      Read from EEPROM and write it in SRAM
                  .macro load_strings_to_SRAM
                  cli
                  clr YH		 //load to YH register 0
                  ldi YL,0x60 //load to YL 0x60 coz 0x0060 - sram start
                  clr ZL		 //clear Z register
                  clr ZH
                  //?????????????????-----DEBUG------????????????????????????????????????????????????????????????????????
                  ldi r19,193			//r19 is a counter
                 						//USE <LDI r19,97> AFTER DEBUG
                  //?????????????????????????????????????????????????????????????????????????????????????????????????????
                 
                  EE_read_loop:			//loop 96 times
                  rcall EEPROM_read_byte //read byte from EEPROM
                  st Y+,byte				//Store byte to SRAM and post-Inc adress
                  inc ZL					//increment Z register after reading byte
                 
                  dec r19				//loop things...
                  brne EE_read_loop		//go to EE_read_loop label if r19 is not 0
                  sei
                  .endm
                 
                 //--------------------------------------------
                 
                  //=========PROCEDURES=====================================
                  //------Read Byte form EEPROM-----------------------
                 
                  EEPROM_read_byte:
                  ; Wait for completion of previous write
000059 99e1       sbic EECR,EEWE
00005a cffe       rjmp EEPROM_read_byte
                 
00005b 94f8       cli //disable all interrupts
                 
                  ; Set up address (Z register) in address register
00005c bbff       out EEARH, ZH
00005d bbee       out EEARL, ZL
                  ; Start eeprom read by writing EERE
00005e 9ae0       sbi EECR,EERE
                  ; Read data from data register
00005f b30d       in byte,EEDR
                 
000060 9478       sei //enable interrupts
000061 9508       ret
                 .include "LCD.inc"			//macro and procedures for HD44780 like displays
                 
                  * Macro and procedures
                  * for HD44780 like LCD 
                  * Sorry for bad english...
                  */ 
                 
                  .equ data = 0x04	   //create constant cmd = 0b00000100 
                  .equ cmd = 0		   //create constant data = 0
                  .equ RS = 2		   //RS - 2nd pin in port C
                  .equ E = 3			   //E - is strob line, is a 3rd pin in port C
                  .equ D4 = 4		   //LCD data pins in port C
                  .equ D5 = 5
                  .equ D6 = 6
                  .equ D7 = 7
                 
                  //========MACRO================================================================
                  
                 //----------delay---------------------------------------------
                   
                  .macro delay
                  push r25
                  push r24
                  push r23
                 
                  ldi r25,@0
                  ldi r24,@1
                  ldi r23,@2
                 
                  rcall delay_proc
                 
                  pop r23
                  pop r24
                  pop r25
                  .endm
                 
                 //------------------------------------------------------------------------
                 
                  //      LCD initialization
                  .macro LCD_init
                  LCD_port_init		//init port C as output
                 
                  delay 242,15,5		//50 ms delay
                  ldi temp,0x30
                  out portc,temp		//send 0x30
                  sbi portc,E
                  lpm
                  cbi portc,E
                  delay 229,30,9		//100 ms delay
                  sbi portc,E
                  lpm				//send 0x30
                  cbi portc,E
                  delay 242,15,5		//50 ms delay 
                  sbi portc,E
                  lpm				//send 0x30
                  cbi portc,E
                  delay 242,15,5		//50 ms delay
                  ldi temp,0x20
                  out portc,temp
                  sbi portc,E		//send 0x20
                  lpm
                  cbi portc,E
                  delay 240,1,1		//delay 45us
                 
                  LCD_send_cmd 0x28	//init 4-bit mode 2 lines
                  delay 240,1,1 //delay 45us
                  LCD_send_cmd 0x01	//clear display
                  delay 142,42,1 //delay 2ms
                  LCD_send_cmd 0x0F	//display ON
                  delay 142,42,1 //delay 2ms
                 
                  LCD_send_cmd 0b0100_0000	//Set CGRAM adress as 0x00
                  delay 240,1,1 //delay 45us
                 
                  LCD_send_symbol 0b00000000			//Start sending bytes for draw a new symbol
                  delay 240,1,1 //delay 45us			//in this case i draw upper arrow
                  LCD_send_symbol 0b00000000			//for do that i sending next bytes
                  delay 240,1,1 //delay 45us			//
                  LCD_send_symbol 0b00000000			//00000000
                  delay 240,1,1 //delay 45us			//00000000
                  LCD_send_symbol 0b00000000			//00000000
                  delay 240,1,1 //delay 45us			//00000000
                  LCD_send_symbol 0b00000100			//00000100
                  delay 240,1,1 //delay 45us			//00001110
                  LCD_send_symbol 0b00001110			//00011111
                  delay 240,1,1 //delay 45us			//00000000
                  LCD_send_symbol 0b00011111			//
                  delay 240,1,1 //delay 45us			//
                  LCD_send_symbol 0b00000000			//
                  delay 240,1,1 //delay 45us			//
                 
                  LCD_send_symbol 0b00000000			//the same like previous but for draw down arrow
                  delay 240,1,1 //delay 45us
                  LCD_send_symbol 0b00011111
                  delay 240,1,1 //delay 45us
                  LCD_send_symbol 0b00001110
                  delay 240,1,1 //delay 45us
                  LCD_send_symbol 0b00000100
                  delay 240,1,1 //delay 45us
                  LCD_send_symbol 0b00000000
                  delay 240,1,1 //delay 45us
                  LCD_send_symbol 0b00000000
                  delay 240,1,1 //delay 45us
                  LCD_send_symbol 0b00000000
                  delay 240,1,1 //delay 45us
                  LCD_send_symbol 0b00000000
                  delay 240,1,1 //delay 45us
                 
                  first_line	//set DDRAM as 0 (in start of first line)
                  .endm
                 
                 //------------------------------------------------------------------------
                 
                  //      LCD clear
                  .macro LCD_clear
                  push temp
                  push byte
                  LCD_send_cmd 0x01	//clear display
                  delay 142,42,1 //delay 2ms
                  pop byte
                  pop temp
                  .endm
                 
                 //------------------------------------------------------------------------
                 
                  //      1st line
                  .macro first_line
                  push temp
                  push byte
                  LCD_send_cmd 0x80	//first line
                  delay 240,1,1 //delay 45us
                  pop byte
                  pop temp
                  .endm
                 
                 //------------------------------------------------------------------------
                 
                  //      2nd line
                  .macro second_line
                  push temp
                  push byte
                  LCD_send_cmd 0xC0	//second line
                  delay 240,1,1 //delay 45us
                  pop byte
                  pop temp
                  .endm
                 
                 //------------------------------------------------------------------------
                 
                  //      set port C as output for working with display
                  .macro LCD_port_init  
                  in temp, ddrc
                  ori temp, (0 | (1<<RS) | (1<<E) | (1<<D4) | (1<<D5) | (1<<D6) | (1<<D7))
                  out ddrc,temp
                  in temp,portc
                  andi temp, (~(0 | (1<<RS) | (1<<E) | (1<<D4) | (1<<D5) | (1<<D6) | (1<<D7)))
                  out portc,temp
                  .endm
                 
                 //------------------------------------------------------------------------
                 
                  //      send command to LCD
                  .macro LCD_send_cmd
                  push temp
                  push byte	
                  ldi temp,cmd
                  ldi byte,@0
                  rcall LCD_send_byte_proc
                  pop byte
                  pop temp
                  .endm
                 
                 //------------------------------------------------------------------------
                 
                  //      send symbol to LCD
                  .macro LCD_send_symbol	
                  push temp
                  push byte
                  ldi temp,4
                  ldi byte,@0
                  rcall LCD_send_byte_proc
                  pop byte
                  pop temp
                  .endm
                 
                 //------------------------------------------------------------------------
                 
                  //      print 16-symbol string from sram adress (if adress is const)
                  .macro LCD_print_str
                  push ZH
                  push ZL
                  push temp
                  push byte
                  push r19
                  ldi ZH,high(@0)	//load to high Z-byte high byte of adress
                  ldi ZL,low(@0)	//load to low Z-byte low byte of adress
                  ldi temp,data	//temp = 0x04 for send data to LCD
                 
                  ldi r19,17			//r19 is a counter
                  sram_read_loop:	//loop 16 times
                  ld byte,Z+			//read from SRAM and post-inc
                  rcall LCD_send_byte_proc	//print symbol to LCD
                  delay 240,1,1 //delay 45us
                  dec r19			//loop things...
                  brne sram_read_loop//go to sram_read_loop label if r19 is not 0
                 
                  pop r19
                  pop byte
                  pop temp
                  pop ZL
                  pop ZH
                  .endm
                 
                 //------------------------------------------------------------------------
                 
                  //      print 16-symbol string from sram adress (if adress is in register)
                  //					ADRESS MUST BE IN X REGISTER
                  .macro LCD_print_str_reg
                  push temp
                  push byte
                  push XL
                  push XH
                  push r19
                 
                  ldi temp,data	//temp = 0x04 for send data to LCD
                 
                  ldi r19,17			//r19 is a counter
                  sram_read_loop:	//loop 16 times
                  ld byte,X+			//read from SRAM and post-inc
                  rcall LCD_send_byte_proc	//print symbol to LCD
                  delay 240,1,1 //delay 45us
                  dec r19			//loop things...
                  brne sram_read_loop//go to sram_read_loop label if r19 is not 0
                 
                  pop r19
                  pop XH
                  pop XL
                  pop byte
                  pop temp
                  .endm
                 
                 //------------------------------------------------------------------------
                 
                 //==============PROCEDURES=====================================================
                 
                  //------delay proc-------------------------------------------------------
                       
                  delay_proc:
                 
                 delay_proc_label: 
000062 959a      	dec  r25
000063 f7f1          brne delay_proc_label
000064 958a          dec  r24
000065 f7e1          brne delay_proc_label
000066 957a      	dec  r23
000067 f7d1          brne delay_proc_label
                 
000068 9508       ret
                 
                 //------Send byte to LCD as 4-but mode------------------------------------
                 
                  LCD_send_byte_proc:
000069 94f8       cli
00006a 930f       push byte //save symbol to stack
00006b 7014       andi temp,0b0000_0100
00006c bb15       out portc,temp //setting RS line
                 
                  //======High half-byte send=======
00006d 7f00       andi byte,0xF0 //clear low half-byte
                 				//example:
                 				//before ANDI byte was 0b01011111
                 				//after byte is 0b01010000
                 
00006e 2b10       or temp,byte	//add high half-byte to temp register
                 				//example:
                 				//before: temp = 0b00000100, byte = 0b11110000
                 				//after: temp = 0b11110100
                 
00006f bb15       out portc,temp //out temp to port C
000070 95c8       lpm			//3 clocks delay
000071 9aab       sbi portc,E	//enable E signal
000072 95c8       lpm			//3 clocks delay
000073 98ab       cbi portc,E	//disable E signal
000074 939f
000075 938f
000076 937f
000077 ef90
000078 e081
000079 e071
00007a dfe7
00007b 917f
00007c 918f
00007d 919f       delay 240,1,1 //delay 45us
                  //======Low half-byte send========
00007e 7014       andi temp,0b0000_0100
00007f 910f       pop byte		//get symbol from stack
000080 700f       andi byte,0x0F //clear high half-byte
                 				//example:
                 				//before andi: byte = 0b01011010
                 				//after: byte = 0b00001010
                 
000081 0f00       lsl byte		//logical shift left
000082 0f00       lsl byte		//example:
000083 0f00       lsl byte		//00001010 <- 00010100 <- 00101000 <- 01010000 <- 10100000
000084 0f00       lsl byte
                 
000085 2b10       or temp,byte	//add symbol's low half-byte 
000086 bb15       out portc,temp //out temp to port C
000087 95c8       lpm			//3 clocks delay
000088 9aab       sbi portc,E	//enable E
000089 95c8       lpm			//3 clocks delay
00008a 98ab       cbi portc,E	//disable E
00008b 95c8       lpm			//3 clocks delay
                  //=====Set port C as 0xFF=========
00008c ef00       ldi byte,0xF0
00008d bb05       out portc,byte	//out to port C 0b11110000
00008e 9478       sei
00008f 9508       ret
                 //------------------------------------------------------------------------
                 //                          sorry for bad english
                 .include "keyboard.inc"		//macro and procedures for 3x4 keyboard
                 
                  * keyboard.inc
                  * macro and procedures for 3x4 keyboard
                  * Sorry for bad english
                  */ 
                 
                  .equ KBD_A = 2
                  .equ KBD_B = 3
                  .equ KBD_C = 4
                  .equ KBD_D = 5
                  .equ KBD_1 = 0
                  .equ KBD_2 = 1
                  .equ KBD_3 = 2
                  .equ count_of_ticks = 3	//count of ticks for prevent false activation macro
                 
                  //=======MACRO==========================================
                  //-------Preventing false activation----------------------------
                  .macro Anti_false_activation
                  
                  ldi YH,high(tick_count)
                  ldi YL,low(tick_count)
                  ld temp,Y+						//load to temp count of ticks
                  ld r16,Y						//load to r16 number of last pressed button
                 
                  cpi r16,@0							//compare block
                  brne end_of_activation_macro		//example on C language:
                  cpi temp,3							//	if(last_btn == @0)
                  brsh end_of_activation_macro		//	{
                 									//		if(tick > count_of_ticks)
                 									//		{
                 									//			tick = 0;
                 									//			do_something...
                 									//		}
                 									//		else
                 									//		{
                 									//			return of On_(button)_Click
                 									//		}
                 									//	}
                 									//	else
                 									//	{
                 									//		tick = 0;
                 									//		do_something...
                 									//	}
                 									//	last_btn=@0
                 
                  rjmp @1							//return of On_(some_btn)_Click
                 
                  end_of_activation_macro:			//label to end of macro for continue
                 
                  ldi temp,0							//saving to RAM
                  ldi r16,@0
                  ldi YH,high(tick_count)
                  ldi YL,low(tick_count)
                  st Y+,temp
                  st Y,r16
                 
                  .endm
                  //-------Initialization ports for working with keyboard---------
                  .macro keyboard_init
                  in temp,ddrb
                  andi temp, (~(0 | (1<<KBD_1) | (1<<KBD_2) | (1<<KBD_3)))
                  out ddrb,temp			//set KBD_1 KBD_2 KBD_3 as input
                 
                  in temp,portb
                  ori temp, (0 | (1<<KBD_1) | (1<<KBD_2) | (1<<KBD_3))
                  out portb,temp			//enable pull-ups for KBD_1 KBD_2 KBD_3
                 
                  in temp,ddrd
                  ori temp, (0 | (1<<KBD_A) | (1<<KBD_B) | (1<<KBD_C) | (1<<KBD_D))
                  out ddrd,temp			//set KBD_A KBD_B KBD_C KBD_D as output
                  .endm
                  //-------Check buttons------------------------------------------
                  .macro keyboard_check
                 
                 	in temp,pind		//set pins without corruption of other pins
                 	ori temp, 0 | (1<<KBD_A) | (1<<KBD_B) | (1<<KBD_C) | (1<<KBD_D)
                 	andi temp, (~(0 | (1<<KBD_A)))//set KBD_A as 0, and KBD_B,C,D as 1
                 	out portd,temp
                 
                 		sbis pinb,KBD_3
                 		rcall On_asterisk_Click
                 
                 		sbis pinb,KBD_2
                 		rcall On_2_Click
                 
                 		sbis pinb,KBD_1
                 		rcall On_3_Click
                 
                 	in temp,pind		//set pins without corruption of other pins
                 	ori temp, 0 | (1<<KBD_A) | (1<<KBD_B) | (1<<KBD_C) | (1<<KBD_D)
                 	andi temp, (~(0 | (1<<KBD_B)))//set KBD_B as 0, and KBD_A,C,D as 1
                 	out portd,temp
                 
                 		sbis pinb,KBD_3
                 		rcall On_1_Click
                 
                 		sbis pinb,KBD_2
                 		rcall On_5_Click
                 
                 		sbis pinb,KBD_1
                 		rcall On_6_Click
                 
                 	in temp,pind		//set pins without corruption of other pins
                 	ori temp, 0 | (1<<KBD_A) | (1<<KBD_B) | (1<<KBD_C) | (1<<KBD_D)
                 	andi temp, (~(0 | (1<<KBD_C)))//set KBD_C as 0, and KBD_A,B,D as 1
                 	out portd,temp
                 
                 		sbis pinb,KBD_3
                 		rcall On_4_Click
                 
                 		sbis pinb,KBD_2
                 		rcall On_8_Click
                 
                 		sbis pinb,KBD_1
                 		rcall On_9_Click
                 
                 	in temp,pind		//set pins without corruption of other pins
                 	ori temp, 0 | (1<<KBD_A) | (1<<KBD_B) | (1<<KBD_C) | (1<<KBD_D)
                 	andi temp, (~(0 | (1<<KBD_D)))//set KBD_D as 0, and KBD_A,B,C as 1
                 	out portd,temp
                 
                 		sbis pinb,KBD_3
                 		rcall On_7_Click
                 
                 		sbis pinb,KBD_2
                 		rcall On_0_Click
                 
                 		sbis pinb,KBD_1
                 		rcall On_grid_Click
                 
                  .endm
                 
                  //=======PROCEDURES=====================================
                  //-------On 1 click-----------------------------
                  On_1_click:
000090 931f       push temp
000091 93df       push YH
000092 93cf       push YL
000093 930f       push r16
                 
000094 e0d1
000095 e2c1
000096 9119
000097 8108
000098 3301
000099 f419
00009a 3013
00009b f408
00009c c006
00009d e010
00009e e301
00009f e0d1
0000a0 e2c1
0000a1 9319
0000a2 8308       Anti_false_activation '1', return_On_1_Click
                 
                  return_On_1_Click:
0000a3 910f       pop r16
0000a4 91cf       pop YL
0000a5 91df       pop YH
0000a6 911f       pop temp
                 
0000a7 9bb2       sbis pinb,KBD_3		//wait until button is turned off
0000a8 cffe       rjmp PC-1
0000a9 9508       ret
                  //-------On 2 click-----------------------------
                  On_2_click:
0000aa 931f       push temp
0000ab 93df       push YH
0000ac 93cf       push YL
0000ad 930f       push r16
                 
0000ae e0d1
0000af e2c1
0000b0 9119
0000b1 8108
0000b2 3302
0000b3 f419
0000b4 3013
0000b5 f408
0000b6 c091
0000b7 e010
0000b8 e302
0000b9 e0d1
0000ba e2c1
0000bb 9319
0000bc 8308       Anti_false_activation '2', return_On_2_Click
                 
0000bd 932f
0000be 93bf
0000bf 93af
0000c0 931f
0000c1 93df
0000c2 93cf
0000c3 94f8
0000c4 e0d1
0000c5 e2c0
0000c6 8128
0000c7 9478
0000c8 e010
0000c9 1321
0000ca c001
0000cb c076
0000cc 952a
0000cd e110
0000ce 9f12
0000cf 2da0
0000d0 2db1
0000d1 e610
0000d2 0fa1
0000d3 2711
0000d4 1fb1
0000d5 94f8
0000d6 931f
0000d7 930f
0000d8 931f
0000d9 930f
0000da e010
0000db e800
0000dc df8c
0000dd 910f
0000de 911f
0000df 939f
0000e0 938f
0000e1 937f
0000e2 ef90
0000e3 e081
0000e4 e071
0000e5 df7c
0000e6 917f
0000e7 918f
0000e8 919f
0000e9 910f
0000ea 911f
0000eb 931f
0000ec 930f
0000ed 93af
0000ee 93bf
0000ef 933f
0000f0 e014
0000f1 e131
0000f2 910d
0000f3 df75
0000f4 939f
0000f5 938f
0000f6 937f
0000f7 ef90
0000f8 e081
0000f9 e071
0000fa df67
0000fb 917f
0000fc 918f
0000fd 919f
0000fe 953a
0000ff f791
000100 913f
000101 91bf
000102 91af
000103 910f
000104 911f
000105 9478
000106 e110
000107 9f12
000108 2da0
000109 2db1
00010a ec10
00010b 0fa1
00010c 2711
00010d 1fb1
00010e 94f8
00010f 931f
000110 930f
000111 931f
000112 930f
000113 e010
000114 ec00
000115 df53
000116 910f
000117 911f
000118 939f
000119 938f
00011a 937f
00011b ef90
00011c e081
00011d e071
00011e df43
00011f 917f
000120 918f
000121 919f
000122 910f
000123 911f
000124 931f
000125 930f
000126 93af
000127 93bf
000128 933f
000129 e014
00012a e131
00012b 910d
00012c df3c
00012d 939f
00012e 938f
00012f 937f
000130 ef90
000131 e081
000132 e071
000133 df2e
000134 917f
000135 918f
000136 919f
000137 953a
000138 f791
000139 913f
00013a 91bf
00013b 91af
00013c 910f
00013d 911f
00013e e0d1
00013f e2c0
000140 8328
000141 9478
000142 91cf
000143 91df
000144 911f
000145 91af
000146 91bf
000147 912f       menu_prev
                 
                  return_On_2_Click:
000148 910f       pop r16
000149 91cf       pop YL
00014a 91df       pop YH
00014b 911f       pop temp
                 
00014c 9bb1       sbis pinb,KBD_2		//wait until button is turned off
00014d cffe       rjmp PC-1
00014e 9508       ret
                  //-------On 3 click-----------------------------
                  On_3_click:
00014f 931f       push temp
000150 93df       push YH
000151 93cf       push YL
000152 930f       push r16
                 
000153 e0d1
000154 e2c1
000155 9119
000156 8108
000157 3303
000158 f419
000159 3013
00015a f408
00015b c006
00015c e010
00015d e303
00015e e0d1
00015f e2c1
000160 9319
000161 8308       Anti_false_activation '3', return_On_3_Click
                  
                  return_On_3_Click:
000162 910f       pop r16
000163 91cf       pop YL
000164 91df       pop YH
000165 911f       pop temp
                 
000166 9bb0       sbis pinb,KBD_1		//wait until button is turned off
000167 cffe       rjmp PC-1
000168 9508       ret
                  //-------On 4 click-----------------------------
                  On_4_click:
000169 931f       push temp
00016a 93df       push YH
00016b 93cf       push YL
00016c 930f       push r16
                 
00016d e0d1
00016e e2c1
00016f 9119
000170 8108
000171 3304
000172 f419
000173 3013
000174 f408
000175 c006
000176 e010
000177 e304
000178 e0d1
000179 e2c1
00017a 9319
00017b 8308       Anti_false_activation '4', return_On_4_Click
                 
                  return_On_4_Click:
00017c 910f       pop r16
00017d 91cf       pop YL
00017e 91df       pop YH
00017f 911f       pop temp
                 
000180 9bb0       sbis pinb,KBD_1		//wait until button is turned off
000181 cffe       rjmp PC-1
000182 9508       ret
                  //-------On 5 click-----------------------------
                  On_5_click:
000183 931f       push temp
000184 93df       push YH
000185 93cf       push YL
000186 930f       push r16
                 
000187 e0d1
000188 e2c1
000189 9119
00018a 8108
00018b 3305
00018c f419
00018d 3013
00018e f408
00018f c01c
000190 e010
000191 e305
000192 e0d1
000193 e2c1
000194 9319
000195 8308       Anti_false_activation '5', return_On_5_Click
                 
000196 e0d1       ldi YH, high(menu_location)
000197 e2c0       ldi YL, low(menu_location)
000198 8118       ld temp, Y			//load current menu page to temp
000199 3015       cpi temp,5			//if current page is sound
00019a f489       brne return_On_5_Click	//then continue, else return
00019b e0d1       ldi YH,high(sound_status)	//
00019c e2c3       ldi YL,low(sound_status)	//read sound status from RAM
00019d 8118       ld temp,Y
                 
00019e fd10       sbrc temp,sound_general_status	//if sound is generally off then set sound on
00019f c005       rjmp sound_off					//else set sound off
                 
                  //sound_alarm_enable
0001a0 931f
0001a1 e01c
0001a2 bf13
0001a3 911f       Timer0_enable
0001a4 c007       rjmp return_On_5_Click
                 
                  sound_off:
                 
                  //sound_alarm_disable
0001a5 931f
0001a6 2711
0001a7 bf13
0001a8 b312
0001a9 7f19
0001aa bb12
0001ab 911f       Timer0_disable
                 
                  return_On_5_Click:
0001ac 910f       pop r16
0001ad 91cf       pop YL
0001ae 91df       pop YH
0001af 911f       pop temp
                 
0001b0 9478       sei
0001b1 9bb1       sbis pinb,KBD_2		//wait until button is turned off
0001b2 cffe       rjmp PC-1
0001b3 9508       ret
                  //-------On 6 click-----------------------------
                  On_6_click:
0001b4 931f       push temp
0001b5 93df       push YH
0001b6 93cf       push YL
0001b7 930f       push r16
                 
0001b8 e0d1
0001b9 e2c1
0001ba 9119
0001bb 8108
0001bc 3306
0001bd f419
0001be 3013
0001bf f408
0001c0 c006
0001c1 e010
0001c2 e306
0001c3 e0d1
0001c4 e2c1
0001c5 9319
0001c6 8308       Anti_false_activation '6', return_On_6_Click
                 
                  return_On_6_Click:
0001c7 910f       pop r16
0001c8 91cf       pop YL
0001c9 91df       pop YH
0001ca 911f       pop temp
                 
0001cb 9bb0       sbis pinb,KBD_1		//wait until button is turned off
0001cc cffe       rjmp PC-1
0001cd 9508       ret
                  //-------On 7 click-----------------------------
                  On_7_click:
0001ce 931f       push temp
0001cf 93df       push YH
0001d0 93cf       push YL
0001d1 930f       push r16
                 
0001d2 e0d1
0001d3 e2c1
0001d4 9119
0001d5 8108
0001d6 3307
0001d7 f419
0001d8 3013
0001d9 f408
0001da c006
0001db e010
0001dc e307
0001dd e0d1
0001de e2c1
0001df 9319
0001e0 8308       Anti_false_activation '7', return_On_7_Click
                 
                  return_On_7_Click:
0001e1 910f       pop r16
0001e2 91cf       pop YL
0001e3 91df       pop YH
0001e4 911f       pop temp
                 
0001e5 9bb2       sbis pinb,KBD_3		//wait until button is turned off
0001e6 cffe       rjmp PC-1
0001e7 9508       ret
                  //-------On 8 click-----------------------------
                  On_8_click:
0001e8 931f       push temp
0001e9 93df       push YH
0001ea 93cf       push YL
0001eb 930f       push r16
                 
0001ec e0d1
0001ed e2c1
0001ee 9119
0001ef 8108
0001f0 3308
0001f1 f419
0001f2 3013
0001f3 f408
0001f4 c091
0001f5 e010
0001f6 e308
0001f7 e0d1
0001f8 e2c1
0001f9 9319
0001fa 8308       Anti_false_activation '8', return_On_8_Click
                  
0001fb 932f
0001fc 93bf
0001fd 93af
0001fe 931f
0001ff 93df
000200 93cf
000201 94f8
000202 e0d1
000203 e2c0
000204 8128
000205 9478
000206 e015
000207 1321
000208 c001
000209 c076
00020a 9523
00020b e110
00020c 9f12
00020d 2da0
00020e 2db1
00020f e610
000210 0fa1
000211 2711
000212 1fb1
000213 94f8
000214 931f
000215 930f
000216 931f
000217 930f
000218 e010
000219 e800
00021a de4e
00021b 910f
00021c 911f
00021d 939f
00021e 938f
00021f 937f
000220 ef90
000221 e081
000222 e071
000223 de3e
000224 917f
000225 918f
000226 919f
000227 910f
000228 911f
000229 931f
00022a 930f
00022b 93af
00022c 93bf
00022d 933f
00022e e014
00022f e131
000230 910d
000231 de37
000232 939f
000233 938f
000234 937f
000235 ef90
000236 e081
000237 e071
000238 de29
000239 917f
00023a 918f
00023b 919f
00023c 953a
00023d f791
00023e 913f
00023f 91bf
000240 91af
000241 910f
000242 911f
000243 9478
000244 e110
000245 9f12
000246 2da0
000247 2db1
000248 ec10
000249 0fa1
00024a 2711
00024b 1fb1
00024c 94f8
00024d 931f
00024e 930f
00024f 931f
000250 930f
000251 e010
000252 ec00
000253 de15
000254 910f
000255 911f
000256 939f
000257 938f
000258 937f
000259 ef90
00025a e081
00025b e071
00025c de05
00025d 917f
00025e 918f
00025f 919f
000260 910f
000261 911f
000262 931f
000263 930f
000264 93af
000265 93bf
000266 933f
000267 e014
000268 e131
000269 910d
00026a ddfe
00026b 939f
00026c 938f
00026d 937f
00026e ef90
00026f e081
000270 e071
000271 ddf0
000272 917f
000273 918f
000274 919f
000275 953a
000276 f791
000277 913f
000278 91bf
000279 91af
00027a 910f
00027b 911f
00027c e0d1
00027d e2c0
00027e 8328
00027f 9478
000280 91cf
000281 91df
000282 911f
000283 91af
000284 91bf
000285 912f       menu_next
                 
                  return_On_8_Click:
000286 910f       pop r16
000287 91cf       pop YL
000288 91df       pop YH
000289 911f       pop temp
                 
00028a 9bb1       sbis pinb,KBD_2		//wait until button is turned off
00028b cffe       rjmp PC-1
00028c 9508       ret
                  //-------On 9 click-----------------------------
                  On_9_click:
00028d 931f       push temp
00028e 93df       push YH
00028f 93cf       push YL
000290 930f       push r16
                 
000291 e0d1
000292 e2c1
000293 9119
000294 8108
000295 3309
000296 f419
000297 3013
000298 f408
000299 c006
00029a e010
00029b e309
00029c e0d1
00029d e2c1
00029e 9319
00029f 8308       Anti_false_activation '9', return_On_9_Click
                 
                  return_On_9_Click:
0002a0 910f       pop r16
0002a1 91cf       pop YL
0002a2 91df       pop YH
0002a3 911f       pop temp
                 
0002a4 9bb0       sbis pinb,KBD_1		//wait until button is turned off
0002a5 cffe       rjmp PC-1
0002a6 9508       ret
                  //-------On * click-----------------------------
                  On_asterisk_click:
0002a7 931f       push temp
0002a8 93df       push YH
0002a9 93cf       push YL
0002aa 930f       push r16
                 
0002ab e0d1
0002ac e2c1
0002ad 9119
0002ae 8108
0002af 320a
0002b0 f419
0002b1 3013
0002b2 f408
0002b3 c006
0002b4 e010
0002b5 e20a
0002b6 e0d1
0002b7 e2c1
0002b8 9319
0002b9 8308       Anti_false_activation '*', return_On_asterisk_Click
                 
                  return_On_asterisk_Click:
0002ba 910f       pop r16
0002bb 91cf       pop YL
0002bc 91df       pop YH
0002bd 911f       pop temp
                 
0002be 9bb2       sbis pinb,KBD_3		//wait until button is turned off
0002bf cffe       rjmp PC-1
0002c0 9508       ret
                  //-------On 0 click-----------------------------
                  On_0_click:
0002c1 931f       push temp
0002c2 93df       push YH
0002c3 93cf       push YL
0002c4 930f       push r16
                 
0002c5 e0d1
0002c6 e2c1
0002c7 9119
0002c8 8108
0002c9 3300
0002ca f419
0002cb 3013
0002cc f408
0002cd c006
0002ce e010
0002cf e300
0002d0 e0d1
0002d1 e2c1
0002d2 9319
0002d3 8308       Anti_false_activation '0', return_On_0_Click
                 
                  return_On_0_Click:
0002d4 910f       pop r16
0002d5 91cf       pop YL
0002d6 91df       pop YH
0002d7 911f       pop temp
                 
0002d8 9bb1       sbis pinb,KBD_2		//wait until button is turned off
0002d9 cffe       rjmp PC-1
0002da 9508       ret
                  //-------On # click-----------------------------
                  On_grid_click:
0002db 931f       push temp
0002dc 93df       push YH
0002dd 93cf       push YL
0002de 930f       push r16
                 
0002df e0d1
0002e0 e2c1
0002e1 9119
0002e2 8108
0002e3 3203
0002e4 f419
0002e5 3013
0002e6 f408
0002e7 c006
0002e8 e010
0002e9 e203
0002ea e0d1
0002eb e2c1
0002ec 9319
0002ed 8308       Anti_false_activation '#', return_On_grid_Click
                 
                  return_On_grid_Click:
0002ee 910f       pop r16
0002ef 91cf       pop YL
0002f0 91df       pop YH
0002f1 911f       pop temp
                 
0002f2 9bb2       sbis pinb,KBD_3		//wait until button is turned off
0002f3 cffe       rjmp PC-1
0002f4 9508       ret
                  //----------------------------------------------
                 //================================================================
                 .include "timers.inc"		//macro and procedures for timer(s)
                 
                  * timers.inc
                  *
                  *  Created: 05.11.2015 0:04:38
                  *   Author: Hogs
                  */ 
                 
                  //==============TIMER 0 (8bit)==============================================
                 
                 		//Timer 0 is reserved for sound generation
                 		//you can see how it works in sound.inc
                 		//all code which using timer 0 is there
                 
                  //==========================================================================
                  //==============TIMER 1 (16-bit)============================================
                 
                  //======MACRO========================
                  //------Timer 1 Init-----------
                  .macro Timer1_Init
                  cli
                  ldi temp, 0 | (1<<OCIE1A) | (1<<OCIE1B)  //enable A Match Interrupt and Overflow Interrupt
                  out TIMSK,temp 
                  clr temp
                  out TCCR1A,temp		//Normal Timer Mode
                  ldi temp,0 | (1<<CS12)
                  out TCCR1B,temp		//Set prescaler 1/256
                  ldi r16,0x18			
                  ldi r17,0x6A
                  out OCR1AH,r16			//set A as 6250
                  out OCR1AL,r17			//that mean timer tick is 0.1sec
                  ldi r16,0x84			//????????????????DEBUG
                  ldi r17,0x24
                  out OCR1BH,r16			//set B as 62500
                  out OCR1BL,r17			//that mean timer tick is 0.1sec
                  clr temp
                  out TCNT1H,temp		//set current timer/counter as 0
                  out TCNT1L,temp
                  sei
                  .endm
                  //-----------------------------
                  //======INTERRUPTS AND PROC==========
                  //------On Match A Interrupt------
                  Keyboard_check_interrupt:
0002f5 931f       push temp
0002f6 93df       push YH
0002f7 93cf       push YL
                 
0002f8 b310
0002f9 631c
0002fa 7f1b
0002fb bb12
0002fc 9bb2
0002fd dfa9
0002fe 9bb1
0002ff ddaa
000300 9bb0
000301 de4d
000302 b310
000303 631c
000304 7f17
000305 bb12
000306 9bb2
000307 dd88
000308 9bb1
000309 de79
00030a 9bb0
00030b dea8
00030c b310
00030d 631c
00030e 7e1f
00030f bb12
000310 9bb2
000311 de57
000312 9bb1
000313 ded4
000314 9bb0
000315 df77
000316 b310
000317 631c
000318 7d1f
000319 bb12
00031a 9bb2
00031b deb2
00031c 9bb1
00031d dfa3
00031e 9bb0
00031f dfbb       keyboard_check
                 
000320 94f8       cli
000321 b5ca       in YL, OCR1AL
000322 b5db       in YH, OCR1AH
000323 e61a       ldi temp,0x6A
000324 0fc1       add YL,temp		//OCR1A += 6250
000325 e118       ldi temp, 0x18
000326 1fd1       adc YH,temp
000327 bddb       out OCR1AH,YH
000328 bdca       out OCR1AL,YL
                 
000329 27cc       clr YL
00032a 27dd       clr YH
00032b bddd       out TCNT1H,YH
00032c bdcc       out TCNT1L,YL
                 
00032d e0d1       ldi YH,high(tick_count)
00032e e2c1       ldi YL,low(tick_count)
00032f 9478       sei
000330 8118       ld temp,Y
000331 9513       inc temp
000332 8318       st Y,temp	
                 
000333 91cf       pop YL
000334 91df       pop YH
000335 911f       pop temp
000336 9518       reti
                  //--------------------------------
                 
                 
                 reset:
                 .include "core_init.inc"	//clear sram, registers and stack init
                 
                  * Clear all registers and SRAM
                  * Initialization stack
                  */ 
                 
                 //================SRAM CLEAR=================================
                 RAM_Flush:	
000337 e6e0      LDI	ZL,Low(SRAM_START)
000338 e0f0      LDI	ZH,High(SRAM_START)
000339 2700      CLR	R16
                 Flush:
00033a 9301      ST Z+,R16
00033b 30f8      CPI	ZH,High(RAMEND+1)
00033c f7e9      BRNE Flush
00033d 36e0      CPI	ZL,Low(RAMEND+1)	
00033e f7d9      BRNE Flush 
00033f 27ee      CLR	ZL
000340 27ff      CLR	ZH
                 //===============REGISTERS CLEAR=============================
000341 e1ee      LDI	ZL, 30			
000342 27ff      CLR	ZH		
000343 95ea      DEC	ZL		
000344 83f0      ST Z,ZH		
000345 f7e9      BRNE PC-2		
                 //===============STACK INIT==================================
000346 e50f      LDI R16,Low(RAMEND)		
000347 bf0d      OUT SPL,R16			
000348 e008      LDI R16,High(RAMEND)
000349 bf0e      OUT SPH,R16
                 //-----------Program start-------------------------
                 
00034a 94f8
00034b e118
00034c bf19
00034d 2711
00034e bd1f
00034f e014
000350 bd1e
000351 e108
000352 e61a
000353 bd0b
000354 bd1a
000355 e804
000356 e214
000357 bd09
000358 bd18
000359 2711
00035a bd1d
00035b bd1c
00035c 9478      Timer1_Init
00035d b317
00035e 7f18
00035f bb17
000360 b318
000361 6017
000362 bb18
000363 b311
000364 631c
000365 bb11      keyboard_init				//initialization of ports for keyboard
000366 b314
000367 6f1c
000368 bb14
000369 b315
00036a 7013
00036b bb15
00036c 939f
00036d 938f
00036e 937f
00036f ef92
000370 e08f
000371 e075
000372 dcef
000373 917f
000374 918f
000375 919f
000376 e310
000377 bb15
000378 9aab
000379 95c8
00037a 98ab
00037b 939f
00037c 938f
00037d 937f
00037e ee95
00037f e18e
000380 e079
000381 dce0
000382 917f
000383 918f
000384 919f
000385 9aab
000386 95c8
000387 98ab
000388 939f
000389 938f
00038a 937f
00038b ef92
00038c e08f
00038d e075
00038e dcd3
00038f 917f
000390 918f
000391 919f
000392 9aab
000393 95c8
000394 98ab
000395 939f
000396 938f
000397 937f
000398 ef92
000399 e08f
00039a e075
00039b dcc6
00039c 917f
00039d 918f
00039e 919f
00039f e210
0003a0 bb15
0003a1 9aab
0003a2 95c8
0003a3 98ab
0003a4 939f
0003a5 938f
0003a6 937f
0003a7 ef90
0003a8 e081
0003a9 e071
0003aa dcb7
0003ab 917f
0003ac 918f
0003ad 919f
0003ae 931f
0003af 930f
0003b0 e010
0003b1 e208
0003b2 dcb6
0003b3 910f
0003b4 911f
0003b5 939f
0003b6 938f
0003b7 937f
0003b8 ef90
0003b9 e081
0003ba e071
0003bb dca6
0003bc 917f
0003bd 918f
0003be 919f
0003bf 931f
0003c0 930f
0003c1 e010
0003c2 e001
0003c3 dca5
0003c4 910f
0003c5 911f
0003c6 939f
0003c7 938f
0003c8 937f
0003c9 e89e
0003ca e28a
0003cb e071
0003cc dc95
0003cd 917f
0003ce 918f
0003cf 919f
0003d0 931f
0003d1 930f
0003d2 e010
0003d3 e00f
0003d4 dc94
0003d5 910f
0003d6 911f
0003d7 939f
0003d8 938f
0003d9 937f
0003da e89e
0003db e28a
0003dc e071
0003dd dc84
0003de 917f
0003df 918f
0003e0 919f
0003e1 931f
0003e2 930f
0003e3 e010
0003e4 e400
0003e5 dc83
0003e6 910f
0003e7 911f
0003e8 939f
0003e9 938f
0003ea 937f
0003eb ef90
0003ec e081
0003ed e071
0003ee dc73
0003ef 917f
0003f0 918f
0003f1 919f
0003f2 931f
0003f3 930f
0003f4 e014
0003f5 e000
0003f6 dc72
0003f7 910f
0003f8 911f
0003f9 939f
0003fa 938f
0003fb 937f
0003fc ef90
0003fd e081
0003fe e071
0003ff dc62
000400 917f
000401 918f
000402 919f
000403 931f
000404 930f
000405 e014
000406 e000
000407 dc61
000408 910f
000409 911f
00040a 939f
00040b 938f
00040c 937f
00040d ef90
00040e e081
00040f e071
000410 dc51
000411 917f
000412 918f
000413 919f
000414 931f
000415 930f
000416 e014
000417 e000
000418 dc50
000419 910f
00041a 911f
00041b 939f
00041c 938f
00041d 937f
00041e ef90
00041f e081
000420 e071
000421 dc40
000422 917f
000423 918f
000424 919f
000425 931f
000426 930f
000427 e014
000428 e000
000429 dc3f
00042a 910f
00042b 911f
00042c 939f
00042d 938f
00042e 937f
00042f ef90
000430 e081
000431 e071
000432 dc2f
000433 917f
000434 918f
000435 919f
000436 931f
000437 930f
000438 e014
000439 e004
00043a dc2e
00043b 910f
00043c 911f
00043d 939f
00043e 938f
00043f 937f
000440 ef90
000441 e081
000442 e071
000443 dc1e
000444 917f
000445 918f
000446 919f
000447 931f
000448 930f
000449 e014
00044a e00e
00044b dc1d
00044c 910f
00044d 911f
00044e 939f
00044f 938f
000450 937f
000451 ef90
000452 e081
000453 e071
000454 dc0d
000455 917f
000456 918f
000457 919f
000458 931f
000459 930f
00045a e014
00045b e10f
00045c dc0c
00045d 910f
00045e 911f
00045f 939f
000460 938f
000461 937f
000462 ef90
000463 e081
000464 e071
000465 dbfc
000466 917f
000467 918f
000468 919f
000469 931f
00046a 930f
00046b e014
00046c e000
00046d dbfb
00046e 910f
00046f 911f
000470 939f
000471 938f
000472 937f
000473 ef90
000474 e081
000475 e071
000476 dbeb
000477 917f
000478 918f
000479 919f
00047a 931f
00047b 930f
00047c e014
00047d e000
00047e dbea
00047f 910f
000480 911f
000481 939f
000482 938f
000483 937f
000484 ef90
000485 e081
000486 e071
000487 dbda
000488 917f
000489 918f
00048a 919f
00048b 931f
00048c 930f
00048d e014
00048e e10f
00048f dbd9
000490 910f
000491 911f
000492 939f
000493 938f
000494 937f
000495 ef90
000496 e081
000497 e071
000498 dbc9
000499 917f
00049a 918f
00049b 919f
00049c 931f
00049d 930f
00049e e014
00049f e00e
0004a0 dbc8
0004a1 910f
0004a2 911f
0004a3 939f
0004a4 938f
0004a5 937f
0004a6 ef90
0004a7 e081
0004a8 e071
0004a9 dbb8
0004aa 917f
0004ab 918f
0004ac 919f
0004ad 931f
0004ae 930f
0004af e014
0004b0 e004
0004b1 dbb7
0004b2 910f
0004b3 911f
0004b4 939f
0004b5 938f
0004b6 937f
0004b7 ef90
0004b8 e081
0004b9 e071
0004ba dba7
0004bb 917f
0004bc 918f
0004bd 919f
0004be 931f
0004bf 930f
0004c0 e014
0004c1 e000
0004c2 dba6
0004c3 910f
0004c4 911f
0004c5 939f
0004c6 938f
0004c7 937f
0004c8 ef90
0004c9 e081
0004ca e071
0004cb db96
0004cc 917f
0004cd 918f
0004ce 919f
0004cf 931f
0004d0 930f
0004d1 e014
0004d2 e000
0004d3 db95
0004d4 910f
0004d5 911f
0004d6 939f
0004d7 938f
0004d8 937f
0004d9 ef90
0004da e081
0004db e071
0004dc db85
0004dd 917f
0004de 918f
0004df 919f
0004e0 931f
0004e1 930f
0004e2 e014
0004e3 e000
0004e4 db84
0004e5 910f
0004e6 911f
0004e7 939f
0004e8 938f
0004e9 937f
0004ea ef90
0004eb e081
0004ec e071
0004ed db74
0004ee 917f
0004ef 918f
0004f0 919f
0004f1 931f
0004f2 930f
0004f3 e014
0004f4 e000
0004f5 db73
0004f6 910f
0004f7 911f
0004f8 939f
0004f9 938f
0004fa 937f
0004fb ef90
0004fc e081
0004fd e071
0004fe db63
0004ff 917f
000500 918f
000501 919f
000502 931f
000503 930f
000504 931f
000505 930f
000506 e010
000507 e800
000508 db60
000509 910f
00050a 911f
00050b 939f
00050c 938f
00050d 937f
00050e ef90
00050f e081
000510 e071
000511 db50
000512 917f
000513 918f
000514 919f
000515 910f
000516 911f      LCD_init					//LCD initialization
000517 94f8
000518 27dd
000519 e6c0
00051a 27ee
00051b 27ff
00051c ec31
00051d db3b
00051e 9309
00051f 95e3
000520 953a
000521 f7d9
000522 9478
000523 e0d1
000524 e2c0
000525 e010
000526 8318
000527 93ff
000528 93ef
000529 931f
00052a 930f
00052b 933f
00052c e0f0
00052d e6e0
00052e e014
00052f e131
000530 9101
000531 db37
000532 939f
000533 938f
000534 937f
000535 ef90
000536 e081
000537 e071
000538 db29
000539 917f
00053a 918f
00053b 919f
00053c 953a
00053d f791
00053e 913f
00053f 910f
000540 911f
000541 91ef
000542 91ff
000543 931f
000544 930f
000545 931f
000546 930f
000547 e010
000548 ec00
000549 db1f
00054a 910f
00054b 911f
00054c 939f
00054d 938f
00054e 937f
00054f ef90
000550 e081
000551 e071
000552 db0f
000553 917f
000554 918f
000555 919f
000556 910f
000557 911f
000558 93ff
000559 93ef
00055a 931f
00055b 930f
00055c 933f
00055d e0f0
00055e ece0
00055f e014
000560 e131
000561 9101
000562 db06
000563 939f
000564 938f
000565 937f
000566 ef90
000567 e081
000568 e071
000569 daf8
00056a 917f
00056b 918f
00056c 919f
00056d 953a
00056e f791
00056f 913f
000570 910f
000571 911f
000572 91ef
000573 91ff      menu_init
000574 b311
000575 6410
000576 bb11
000577 b312
000578 7b1f
000579 bb12
00057a 2711
00057b bf12
00057c e117
00057d bf1c
00057e b719
00057f 6011
000580 bf19      sound_init
000581 931f
000582 93df
000583 93cf
000584 94f8
000585 e0d1
000586 e2c3
000587 9478
000588 e010
000589 8318
00058a b719
00058b 7f17
00058c bf19
00058d 931f
00058e 2711
00058f bf13
000590 b312
000591 7f19
000592 bb12
000593 911f
000594 91cf
000595 91df
000596 911f      sound_alarm_disable
                 
                 //-----------MAIN----------------------------------
                 main:			
000597 0000      	nop
000598 cffe      rjmp main		
                 //-------------------------------------------------
                 //========EEPROM SEGMENT=================================================
                 .eseg
                 .org 0
000000 4c
000001 65
000002 76
000003 65
000004 6c
000005 20
000006 43
000007 4f
000008 20
000009 20
00000a 20
00000b 20
00000c 20
00000d 20
00000e 20
00000f 20        ee_hello_msg:	.db "Level CO        "
000010 4c
000011 65
000012 76
000013 65
000014 6c
000015 20
000016 43
000017 48
000018 34
000019 20
00001a 20
00001b 20
00001c 20
00001d 20
00001e 20
00001f 00        ee_CH4_msg:		.db "Level CH4      ",0
000020 54
000021 65
000022 6d
000023 70
000024 65
000025 72
000026 61
000027 74
000028 75
000029 72
00002a 65
00002b 20
00002c 20
00002d 20
00002e 20
00002f 00        ee_temp_msg:	.db "Temperature    ",0
000030 43
000031 6f
000032 6f
000033 72
000034 64
000035 69
000036 6e
000037 61
000038 74
000039 65
00003a 73
00003b 20
00003c 20
00003d 20
00003e 20
00003f 00        ee_coords_msg:	.db "Coordinates    ",0
000040 54
000041 69
000042 6d
000043 65
000044 20
000045 20
000046 20
000047 20
000048 20
000049 20
00004a 20
00004b 20
00004c 20
00004d 20
00004e 20
00004f 00        ee_time_msg:	.db "Time           ",0
000050 53
000051 6f
000052 75
000053 6e
000054 64
000055 28
000056 35
000057 2d
000058 4f
000059 6e
00005a 2f
00005b 4f
00005c 66
00005d 66
00005e 29
00005f 00        ee_sound_msg:	.db "Sound(5-On/Off)",0
000060 74
000061 65
000062 73
000063 74
000064 20
000065 73
000066 74
000067 72
000068 20
000069 31
00006a 20
00006b 20
00006c 20
00006d 20
00006e 20
00006f 01        ee_test_msg1:	.db "test str 1     ",1
000070 74
000071 65
000072 73
000073 74
000074 20
000075 73
000076 74
000077 72
000078 20
000079 32
00007a 20
00007b 20
00007c 20
00007d 20
00007e 20
00007f 01        ee_test_msg2:	.db "test str 2     ",1
000080 74
000081 65
000082 73
000083 74
000084 20
000085 73
000086 74
000087 72
000088 20
000089 33
00008a 20
00008b 20
00008c 20
00008d 20
00008e 20
00008f 01        ee_test_msg3:	.db "test str 3     ",1
000090 74
000091 65
000092 73
000093 74
000094 20
000095 73
000096 74
000097 72
000098 20
000099 34
00009a 20
00009b 20
00009c 20
00009d 20
00009e 20
00009f 01        ee_test_msg4:	.db "test str 4     ",1
0000a0 74
0000a1 65
0000a2 73
0000a3 74
0000a4 20
0000a5 73
0000a6 74
0000a7 72
0000a8 20
0000a9 35
0000aa 20
0000ab 20
0000ac 20
0000ad 20
0000ae 20
0000af 01        ee_test_msg5:	.db "test str 5     ",1
0000b0 50
0000b1 72
0000b2 65
0000b3 73
0000b4 73
0000b5 20
0000b6 35
0000b7 20
0000b8 74
0000b9 6f
0000ba 20
0000bb 74
0000bc 65
0000bd 73
0000be 74
0000bf 20        ee_test_msg6:	.db "Press 5 to test "
                 //=======================================================================


RESOURCE USE INFORMATION
------------------------

Notice:
The register and instruction counts are symbol table hit counts,
and hence implicitly used resources are not counted, eg, the
'lpm' instruction without operands implicitly uses r0 and z,
none of which are counted.

x,y,z are separate entities in the symbol table and are
counted separately from r26..r31 here.

.dseg memory usage only counts static data declared with .byte

"ATmega32" register use summary:
r0 :   4 r1 :   4 r2 :   0 r3 :   0 r4 :   0 r5 :   0 r6 :   0 r7 :   0 
r8 :   0 r9 :   0 r10:   0 r11:   0 r12:   0 r13:   0 r14:   0 r15:   0 
r16: 204 r17: 349 r18:  16 r19:  26 r20:   0 r21:   0 r22:   0 r23: 115 
r24: 115 r25: 115 r26:  20 r27:  20 r28:  77 r29:  77 r30:  14 r31:  13 
x  :   4 y  :  62 z  :   4 
Registers used: 18 out of 35 (51.4%)

"ATmega32" instruction use summary:
.lds  :   0 .sts  :   0 adc   :   5 add   :   5 adiw  :   0 and   :   0 
andi  :  14 asr   :   0 bclr  :   0 bld   :   0 brbc  :   0 brbs  :   0 
brcc  :   0 brcs  :   0 break :   0 breq  :   0 brge  :   0 brhc  :   0 
brhs  :   0 brid  :   0 brie  :   0 brlo  :   0 brlt  :   0 brmi  :   0 
brne  :  26 brpl  :   0 brsh  :  12 brtc  :   0 brts  :   0 brvc  :   0 
brvs  :   0 bset  :   0 bst   :   0 call  :   0 cbi   :   6 cbr   :   3 
clc   :   0 clh   :   0 cli   :  12 cln   :   0 clr   :  19 cls   :   0 
clt   :   0 clv   :   0 clz   :   0 com   :   0 cp    :   0 cpc   :   0 
cpi   :  27 cpse  :   2 dec   :  12 eor   :   0 fmul  :   0 fmuls :   0 
fmulsu:   0 icall :   0 ijmp  :   0 in    :  21 inc   :   3 jmp   :   0 
ld    :  36 ldd   :   0 ldi   : 309 lds   :   0 lpm   :  27 lsl   :   4 
lsr   :   0 mov   :   8 movw  :   0 mul   :   4 muls  :   0 mulsu :   0 
neg   :   0 nop   :   1 or    :   2 ori   :  10 out   :  50 pop   : 288 
push  : 284 rcall :  83 ret   :  15 reti  :  23 rjmp  :  37 rol   :   0 
ror   :   0 sbc   :   0 sbci  :   0 sbi   :   7 sbic  :   1 sbis  :  25 
sbiw  :   0 sbr   :   1 sbrc  :   2 sbrs  :   0 sec   :   0 seh   :   0 
sei   :  13 sen   :   0 ser   :   0 ses   :   0 set   :   0 sev   :   0 
sez   :   0 sleep :   0 spm   :   0 st    :  34 std   :   0 sts   :   0 
sub   :   0 subi  :   0 swap  :   0 tst   :   0 wdr   :   0 
Instructions used: 37 out of 113 (32.7%)

"ATmega32" memory use summary [bytes]:
Segment   Begin    End      Code   Data   Used    Size   Use%
---------------------------------------------------------------
[.cseg] 0x000000 0x000b32   2826      0   2826   32768   8.6%
[.dseg] 0x000060 0x000124      0    196    196    2048   9.6%
[.eseg] 0x000000 0x0000c0      0    192    192    1024  18.8%

Assembly complete, 0 errors, 0 warnings
